
 Start         Length     Name                   Class
 0003:00000000 000001000H SPDATA                 DATA
 0004:00000000 000001000H SPCODE                 CODE
 0002:00000000 000FFF004H CODE                   CODE


  Address         Publics by Value

 0003:04000000       unk_4000000
 0003:04000001       unk_4000001
 0003:04000004       unk_4000004
 0003:04000083       unk_4000083
 0003:04000101       unk_4000101
 0003:04000102       unk_4000102
 0003:04000103       unk_4000103
 0003:04000203       unk_4000203
 0003:04000300       unk_4000300
 0003:04000400       unk_4000400
 0003:04000404       unk_4000404
 0003:04000D2B       unk_4000D2B
 0004:04001000       sub_4001000
 0004:04001008       loc_4001008
 0004:0400103C       loc_400103C
 0004:04001054       loc_4001054
 0004:04001058       loc_4001058
 0004:04001064       loc_4001064
 0004:04001088       loc_4001088
 0004:0400109C       loc_400109C
 0004:040010A8       loc_40010A8
 0004:040010AC       loc_40010AC
 0004:040010B8       loc_40010B8
 0004:040010BC       loc_40010BC
 0004:040010C0       loc_40010C0
 0004:040010C8       loc_40010C8
 0004:040010D4       loc_40010D4
 0004:040010E4       loc_40010E4
 0004:040010E8       loc_40010E8
 0004:040010EC       loc_40010EC
 0004:040010F0       loc_40010F0
 0004:040010F8       loc_40010F8
 0004:040010FC       loc_40010FC
 0004:04001104       loc_4001104
 0004:0400110C       loc_400110C
 0004:0400111C       loc_400111C
 0004:04001120       loc_4001120
 0004:0400112C       loc_400112C
 0004:0400113C       sub_400113C
 0004:04001140       loc_4001140
 0004:0400114C       loc_400114C
 0004:04001154       loc_4001154
 0004:0400115C       loc_400115C
 0004:04001164       sub_4001164
 0004:04001168       loc_4001168
 0004:0400116C       loc_400116C
 0004:04001174       loc_4001174
 0004:04001178       loc_4001178
 0004:04001190       loc_4001190
 0004:04001198       loc_4001198
 0004:040011B4       loc_40011B4
 0004:040011B8       loc_40011B8
 0004:040011BC       loc_40011BC
 0004:040011C8       loc_40011C8
 0004:040011D0       loc_40011D0
 0004:040011D8       loc_40011D8
 0004:040011E0       loc_40011E0
 0004:040011F0       loc_40011F0
 0004:040011F8       loc_40011F8
 0004:04001200       loc_4001200
 0004:0400120C       loc_400120C
 0004:04001218       loc_4001218
 0004:04001220       loc_4001220
 0004:04001228       loc_4001228
 0004:04001230       loc_4001230
 0004:0400124C       loc_400124C
 0004:04001250       loc_4001250
 0004:04001278       loc_4001278
 0004:04001280       loc_4001280
 0004:04001284       loc_4001284
 0004:04001288       loc_4001288
 0004:04001290       loc_4001290
 0004:040012CC       loc_40012CC
 0004:040012D0       loc_40012D0
 0004:040012D4       loc_40012D4
 0004:040012E0       loc_40012E0
 0004:040012EC       loc_40012EC
 0004:04001330       loc_4001330
 0004:04001344       loc_4001344
 0004:04001348       loc_4001348
 0004:04001360       loc_4001360
 0004:04001368       loc_4001368
 0004:0400136C       loc_400136C
 0004:0400139C       loc_400139C
 0004:040013A0       loc_40013A0
 0004:040013A4       loc_40013A4
 0004:040013AC       loc_40013AC
 0004:040013B0       loc_40013B0
 0004:040013C4       loc_40013C4
 0004:040013C8       loc_40013C8
 0004:040013E0       loc_40013E0
 0004:04001408       loc_4001408
 0004:0400140C       loc_400140C
 0004:04001418       loc_4001418
 0004:0400141C       loc_400141C
 0004:04001420       loc_4001420
 0004:04001428       loc_4001428
 0004:0400142C       loc_400142C
 0004:04001434       loc_4001434
 0004:04001438       loc_4001438
 0004:04001440       loc_4001440
 0004:04001444       loc_4001444
 0004:0400144C       loc_400144C
 0004:04001458       loc_4001458
 0004:04001478       loc_4001478
 0004:04001480       loc_4001480
 0004:04001484       loc_4001484
 0004:0400148C       loc_400148C
 0004:04001490       loc_4001490
 0004:04001498       loc_4001498
 0004:040014A4       loc_40014A4
 0004:040014C0       loc_40014C0
 0004:040014D8       loc_40014D8
 0004:040014E4       sub_40014E4
 0004:040014E8       loc_40014E8
 0004:040014F0       loc_40014F0
 0004:0400150C       sub_400150C
 0004:04001510       loc_4001510
 0004:04001518       loc_4001518
 0004:04001520       loc_4001520
 0004:04001524       loc_4001524
 0004:04001528       loc_4001528
 0004:0400152C       loc_400152C
 0004:0400153C       loc_400153C
 0004:04001548       loc_4001548
 0004:04001570       loc_4001570
 0004:0400157C       loc_400157C
 0004:04001590       loc_4001590
 0004:04001594       loc_4001594
 0004:0400159C       loc_400159C
 0004:040015A8       loc_40015A8
 0004:040015B0       loc_40015B0
 0004:040015B4       loc_40015B4
 0004:040015C8       loc_40015C8
 0004:040015D4       loc_40015D4
 0004:040015E0       loc_40015E0
 0004:040015E4       loc_40015E4
 0004:040015E8       loc_40015E8
 0004:040015EC       loc_40015EC
 0004:040015F0       loc_40015F0
 0004:040015F4       loc_40015F4
 0004:040015FC       loc_40015FC
 0004:0400160C       loc_400160C
 0004:04001614       loc_4001614
 0004:04001620       loc_4001620
 0004:04001624       loc_4001624
 0004:04001630       loc_4001630
 0004:0400163C       loc_400163C
 0004:04001658       loc_4001658
 0004:04001660       loc_4001660
 0004:04001664       loc_4001664
 0004:04001670       loc_4001670
 0004:04001678       loc_4001678
 0004:04001680       loc_4001680
 0004:04001694       loc_4001694
 0004:040016A0       loc_40016A0
 0004:040016B4       loc_40016B4
 0004:040016C4       loc_40016C4
 0004:040016D4       loc_40016D4
 0004:040016EC       loc_40016EC
 0004:040016FC       loc_40016FC
 0004:04001700       loc_4001700
 0004:04001704       loc_4001704
 0004:0400170C       loc_400170C
 0004:04001710       loc_4001710
 0004:04001720       loc_4001720
 0004:04001730       loc_4001730
 0004:04001734       loc_4001734
 0004:04001738       loc_4001738
 0004:04001748       loc_4001748
 0004:04001750       loc_4001750
 0004:04001754       loc_4001754
 0004:04001758       loc_4001758
 0004:04001764       loc_4001764
 0004:04001780       loc_4001780
 0004:04001784       loc_4001784
 0004:04001788       loc_4001788
 0004:04001794       loc_4001794
 0004:040017A0       loc_40017A0
 0004:040017A4       loc_40017A4
 0004:040017B0       loc_40017B0
 0004:040017B4       loc_40017B4
 0004:040017C0       loc_40017C0
 0004:040017D0       loc_40017D0
 0004:040017D4       loc_40017D4
 0004:040017DC       loc_40017DC
 0004:040017E0       loc_40017E0
 0004:040017E8       loc_40017E8
 0004:040017F0       loc_40017F0
 0004:040017F4       loc_40017F4
 0004:040017F8       loc_40017F8
 0004:04001800       loc_4001800
 0004:04001820       loc_4001820
 0004:04001834       loc_4001834
 0004:0400185C       loc_400185C
 0004:04001860       loc_4001860
 0004:04001888       loc_4001888
 0004:04001890       loc_4001890
 0004:040018A0       loc_40018A0
 0004:040018D0       loc_40018D0
 0004:040018D8       loc_40018D8
 0004:040018DC       loc_40018DC
 0004:04001908       loc_4001908
 0004:04001940       loc_4001940
 0004:04001950       loc_4001950
 0004:04001980       loc_4001980
 0004:04001988       loc_4001988
 0004:04001990       loc_4001990
 0004:040019C0       loc_40019C0
 0004:040019C8       loc_40019C8
 0004:040019D0       loc_40019D0
 0004:040019E0       loc_40019E0
 0004:040019E8       loc_40019E8
 0004:04001A20       loc_4001A20
 0004:04001A28       loc_4001A28
 0004:04001A68       loc_4001A68
 0004:04001A70       loc_4001A70
 0004:04001A74       loc_4001A74
 0004:04001A80       loc_4001A80
 0004:04001A90       loc_4001A90
 0004:04001AB0       loc_4001AB0
 0004:04001AC0       loc_4001AC0
 0004:04001AD0       loc_4001AD0
 0004:04001AE4       loc_4001AE4
 0004:04001AF8       loc_4001AF8
 0004:04001B4C       loc_4001B4C
 0004:04001B9C       loc_4001B9C
 0004:04001BA0       loc_4001BA0
 0004:04001BB0       loc_4001BB0
 0004:04001C00       loc_4001C00
 0004:04001C20       loc_4001C20
 0004:04001C9C       loc_4001C9C
 0004:04001CA4       loc_4001CA4
 0004:04001CDC       loc_4001CDC
 0004:04001CE4       loc_4001CE4
 0004:04001D14       loc_4001D14
 0004:04001D1C       loc_4001D1C
 0004:04001D80       loc_4001D80
 0004:04001DD4       loc_4001DD4
 0004:04001DDC       loc_4001DDC
 0004:04001DE0       loc_4001DE0
 0004:04001DE8       loc_4001DE8
 0004:04001F38       loc_4001F38
 0004:04001F40       loc_4001F40
 0004:04001FC4       loc_4001FC4
 0004:04001FD4       loc_4001FD4
 0004:04001FD8       loc_4001FD8
 0002:80100400       start
 0002:80100410       loc_80100410
 0002:801004CC       loc_801004CC
 0002:80100510       locret_80100510
 0002:80100580       loc_80100580
 0002:801005A8       loc_801005A8
 0002:801005BC       loc_801005BC
 0002:801005C0       loc_801005C0
 0002:801005D4       locret_801005D4
 0002:801005F0       loc_801005F0
 0002:80100604       locret_80100604
 0002:80100620       loc_80100620
 0002:8010064C       loc_8010064C
 0002:80100654       loc_80100654
 0002:801009AC       loc_801009AC
 0002:801009D0       locret_801009D0
 0002:801009D8       sub_801009D8
 0002:80100A04       loc_80100A04
 0002:80100A2C       loc_80100A2C
 0002:80100A3C       loc_80100A3C
 0002:80100A6C       loc_80100A6C
 0002:80100A78       loc_80100A78
 0002:801010E0       loc_801010E0
 0002:801010F8       loc_801010F8
 0002:8010111C       loc_8010111C
 0002:801012E0       loc_801012E0
 0002:80101328       loc_80101328
 0002:8010137C       loc_8010137C
 0002:80101384       loc_80101384
 0002:801013C4       loc_801013C4
 0002:801013C8       loc_801013C8
 0002:80101408       loc_80101408
 0002:8010140C       loc_8010140C
 0002:8010144C       loc_8010144C
 0002:80101450       loc_80101450
 0002:80101494       loc_80101494
 0002:801014B4       sub_801014B4
 0002:801014CC       sub_801014CC
 0002:801014E8       sub_801014E8
 0002:80101544       loc_80101544
 0002:801015B0       loc_801015B0
 0002:80101690       loc_80101690
 0002:801017F8       loc_801017F8
 0002:80101860       sub_80101860
 0002:8010188C       locret_8010188C
 0002:80101BB4       nullsub_1
 0002:80101BE4       loc_80101BE4
 0002:80101C08       loc_80101C08
 0002:80101C34       loc_80101C34
 0002:80101C3C       loc_80101C3C
 0002:80101C50       loc_80101C50
 0002:80101C68       loc_80101C68
 0002:80101C80       loc_80101C80
 0002:80101C98       loc_80101C98
 0002:80101CCC       loc_80101CCC
 0002:80101D00       locret_80101D00
 0002:80101D08       loc_80101D08
 0002:80101D3C       loc_80101D3C
 0002:80101D80       loc_80101D80
 0002:80101D94       loc_80101D94
 0002:80101DB0       loc_80101DB0
 0002:80101DBC       loc_80101DBC
 0002:80101DE8       loc_80101DE8
 0002:80101E34       loc_80101E34
 0002:80101E58       loc_80101E58
 0002:80101E5C       loc_80101E5C
 0002:80101EA0       loc_80101EA0
 0002:80101EC4       loc_80101EC4
 0002:80101EC8       loc_80101EC8
 0002:80101ED0       loc_80101ED0
 0002:80101EDC       sub_80101EDC
 0002:80101F10       loc_80101F10
 0002:80101F18       loc_80101F18
 0002:80101F3C       loc_80101F3C
 0002:80101F5C       loc_80101F5C
 0002:80101FB8       loc_80101FB8
 0002:80102010       loc_80102010
 0002:80102060       loc_80102060
 0002:80102098       loc_80102098
 0002:801020B8       loc_801020B8
 0002:801020C0       loc_801020C0
 0002:801020D4       loc_801020D4
 0002:801020D8       loc_801020D8
 0002:80102578       loc_80102578
 0002:801025BC       loc_801025BC
 0002:801025D4       loc_801025D4
 0002:80102608       loc_80102608
 0002:8010260C       loc_8010260C
 0002:80102630       loc_80102630
 0002:80102638       loc_80102638
 0002:8010263C       loc_8010263C
 0002:80102644       loc_80102644
 0002:80102650       sub_80102650
 0002:8010267C       loc_8010267C
 0002:801026A4       loc_801026A4
 0002:801026F0       loc_801026F0
 0002:80102718       loc_80102718
 0002:80102738       loc_80102738
 0002:80102744       loc_80102744
 0002:80102748       loc_80102748
 0002:80102778       loc_80102778
 0002:80102790       loc_80102790
 0002:801027C0       loc_801027C0
 0002:801027CC       loc_801027CC
 0002:80102800       loc_80102800
 0002:80102814       loc_80102814
 0002:80102834       loc_80102834
 0002:80102850       loc_80102850
 0002:80102868       loc_80102868
 0002:8010287C       loc_8010287C
 0002:80102928       nullsub_2
 0002:80102D34       loc_80102D34
 0002:80102D70       loc_80102D70
 0002:80102DA0       nullsub_3
 0002:80102DB0       sub_80102DB0
 0002:80102DC8       loc_80102DC8
 0002:80102DDC       loc_80102DDC
 0002:80102E64       loc_80102E64
 0002:80102EA0       loc_80102EA0
 0002:80102F08       loc_80102F08
 0002:80102F48       loc_80102F48
 0002:80102F64       loc_80102F64
 0002:80102FD0       loc_80102FD0
 0002:80102FF8       loc_80102FF8
 0002:80103000       nullsub_13
 0002:80103008       sub_80103008
 0002:80103038       loc_80103038
 0002:80103054       loc_80103054
 0002:8010306C       loc_8010306C
 0002:80103084       loc_80103084
 0002:80103094       loc_80103094
 0002:801030F0       loc_801030F0
 0002:80103104       loc_80103104
 0002:8010312C       loc_8010312C
 0002:80103140       loc_80103140
 0002:8010314C       loc_8010314C
 0002:80103158       loc_80103158
 0002:80103164       locret_80103164
 0002:801031D8       nullsub_4
 0002:80103228       loc_80103228
 0002:80103238       locret_80103238
 0002:80103240       loc_80103240
 0002:8010324C       loc_8010324C
 0002:80103294       loc_80103294
 0002:801032E8       loc_801032E8
 0002:80103328       loc_80103328
 0002:80103654       loc_80103654
 0002:80103698       loc_80103698
 0002:801036A0       loc_801036A0
 0002:801036BC       loc_801036BC
 0002:801038F0       loc_801038F0
 0002:80103908       loc_80103908
 0002:80103E28       loc_80103E28
 0002:80103E40       loc_80103E40
 0002:80103FF0       sub_80103FF0
 0002:80104004       loc_80104004
 0002:80104018       loc_80104018
 0002:80104028       locret_80104028
 0002:80104234       loc_80104234
 0002:80104250       loc_80104250
 0002:801047D4       loc_801047D4
 0002:80104B10       loc_80104B10
 0002:80104B18       loc_80104B18
 0002:80104B1C       loc_80104B1C
 0002:80104BB0       sub_80104BB0
 0002:80104C08       sub_80104C08
 0002:80104C3C       loc_80104C3C
 0002:80104C64       loc_80104C64
 0002:80104F00       loc_80104F00
 0002:801051CC       loc_801051CC
 0002:80105388       loc_80105388
 0002:80105398       locret_80105398
 0002:801053A0       loc_801053A0
 0002:801053AC       loc_801053AC
 0002:80105450       loc_80105450
 0002:80105470       loc_80105470
 0002:80105480       locret_80105480
 0002:80105488       loc_80105488
 0002:80105494       loc_80105494
 0002:801056C0       sub_801056C0
 0002:801056E0       loc_801056E0
 0002:801056E4       locret_801056E4
 0002:801058F4       loc_801058F4
 0002:801058FC       loc_801058FC
 0002:80105900       loc_80105900
 0002:80106500       locret_80106500
 0002:80106640       sub_80106640
 0002:801066C8       nullsub_5
 0002:801066E4       nullsub_6
 0002:80106A3C       loc_80106A3C
 0002:80106AEC       sub_80106AEC
 0002:80106AFC       loc_80106AFC
 0002:80106B18       locret_80106B18
 0002:80106B20       sub_80106B20
 0002:80106B30       loc_80106B30
 0002:80106B4C       locret_80106B4C
 0002:80106B54       sub_80106B54
 0002:80106B70       loc_80106B70
 0002:80106B88       locret_80106B88
 0002:80106D78       loc_80106D78
 0002:80106FC4       loc_80106FC4
 0002:80107784       loc_80107784
 0002:801077B4       loc_801077B4
 0002:801077C8       loc_801077C8
 0002:80107818       loc_80107818
 0002:80107830       loc_80107830
 0002:80107844       loc_80107844
 0002:80107848       loc_80107848
 0002:80107950       loc_80107950
 0002:80107BF8       loc_80107BF8
 0002:80107C28       loc_80107C28
 0002:80107C5C       loc_80107C5C
 0002:80107C78       loc_80107C78
 0002:80107CA4       loc_80107CA4
 0002:80107CB0       loc_80107CB0
 0002:80107CEC       loc_80107CEC
 0002:80107D40       loc_80107D40
 0002:80107D78       loc_80107D78
 0002:80107D7C       loc_80107D7C
 0002:80107DE4       loc_80107DE4
 0002:80107EAC       loc_80107EAC
 0002:80107F28       loc_80107F28
 0002:80108174       loc_80108174
 0002:801081B8       loc_801081B8
 0002:801083C8       loc_801083C8
 0002:801083E0       nullsub_7
 0002:8010844C       locret_8010844C
 0002:8010845C       loc_8010845C
 0002:80108478       loc_80108478
 0002:80108808       loc_80108808
 0002:80108978       loc_80108978
 0002:80108B80       loc_80108B80
 0002:80108B9C       loc_80108B9C
 0002:80108BA0       loc_80108BA0
 0002:80108BE4       loc_80108BE4
 0002:80108C0C       loc_80108C0C
 0002:80108C34       loc_80108C34
 0002:80108C3C       loc_80108C3C
 0002:80108C40       locret_80108C40
 0002:80108CFC       loc_80108CFC
 0002:80108FF0       loc_80108FF0
 0002:80109000       sub_80109000
 0002:80109020       loc_80109020
 0002:80109024       locret_80109024
 0002:801093E0       loc_801093E0
 0002:80109530       loc_80109530
 0002:801095E8       loc_801095E8
 0002:8010969C       loc_8010969C
 0002:80109704       loc_80109704
 0002:80109860       loc_80109860
 0002:80109970       loc_80109970
 0002:80109A84       loc_80109A84
 0002:80109B4C       loc_80109B4C
 0002:80109C14       loc_80109C14
 0002:80109C30       sub_80109C30
 0002:80109C50       sub_80109C50
 0002:80109C68       loc_80109C68
 0002:80109C7C       loc_80109C7C
 0002:80109CCC       loc_80109CCC
 0002:80109CEC       loc_80109CEC
 0002:80109D0C       loc_80109D0C
 0002:80109D30       loc_80109D30
 0002:80109D50       loc_80109D50
 0002:80109D70       loc_80109D70
 0002:80109D90       loc_80109D90
 0002:80109DB0       loc_80109DB0
 0002:80109DC0       loc_80109DC0
 0002:80109EB0       sub_80109EB0
 0002:80109EC8       loc_80109EC8
 0002:80109EDC       loc_80109EDC
 0002:80109F2C       loc_80109F2C
 0002:80109F4C       loc_80109F4C
 0002:80109F6C       loc_80109F6C
 0002:80109F90       loc_80109F90
 0002:80109FB0       loc_80109FB0
 0002:80109FD0       loc_80109FD0
 0002:80109FF0       loc_80109FF0
 0002:8010A010       loc_8010A010
 0002:8010A020       loc_8010A020
 0002:8010A07C       loc_8010A07C
 0002:8010A0CC       loc_8010A0CC
 0002:8010A0F0       loc_8010A0F0
 0002:8010A2E4       aSTextXX
 0002:8010A2F4       aDXS
 0002:8010A300       aUsoUnloadingS
 0002:8010A314       aUsoLoadingS
 0002:8010A328       aRb
 0002:8010A32C       aUsoVersionS
 0002:8010A340       a31
 0002:8010A344       aUnknown
 0002:8010A34C       aMemusedD
 0002:8010A35C       aSD
 0002:8010A368       aRb_0
 0002:8010A36C       aUnkownRelocTyp
 0002:8010A384       aUsoUncompressD
 0002:8010A3A0       aCrossReference
 0002:8010A590       aMainuso
 0002:8010A598       aRom
 0002:8010A59C       aMainusoBootupU
 0002:8010A5B0       aInfo
 0002:8010A5B8       aSym
 0002:8010A5BC       aTextReloc
 0002:8010A5C8       aDataReloc
 0002:8010A5D4       aRodataReloc
 0002:8010A5E4       aText
 0002:8010A5EC       aData
 0002:8010A5F4       aRodata
 0002:8010A5FC       aBss
 0002:8010A600       aEntrysym
 0002:8010A60C       aEndoffile
 0002:8010A61C       aBinarydatasect
 0002:8010A630       aDiskinfo
 0002:8010A790       aReadmem08xForD
 0002:8010A7A8       aWritemem
 0002:8010A7B4       aLongUnalignedW
 0002:8010A7D0       aRcpWriteNotAnI
 0002:8010A7FC       aListprocesses
 0002:8010A80C       aLoadprogram
 0002:8010A81C       aGetexename
 0002:8010A828       aImem
 0002:8010A830       aRmon
 0002:8010A838       aGetregioncount
 0002:8010A848       aGetregions
 0002:8010A860       aRmonThreadDCre
 0002:8010A87C       aRmonThreadDDes
 0002:8010A8A0       aStopthreadsD
 0002:8010A8B0       aCouldnTStopThr
 0002:8010A8CC       aCouldnTStopThr_0
 0002:8010A8E8       aListthreads
 0002:8010A8F8       aThreadstatusDM
 0002:8010A914       aStopthreadD
 0002:8010A924       aRunthreadD
 0002:8010A940       aSetfault
 0002:8010A94C       aPanic
 0002:8010A958       aSetcomm
 0002:8010A970       aSetTempBpAt08x
 0002:8010A984       aAnd08x
 0002:8010A994       aCleartempbreak
 0002:8010A9AC       aCleartempbreak_0
 0002:8010A9C4       aSetbreakAt08xM
 0002:8010A9E4       a08x08xWas08x
 0002:8010AA00       aListbreak
 0002:8010AA0C       aClearbreak
 0002:8010AA18       aSinglestep
 0002:8010AA24       aBreakDInThread
 0002:8010AA3C       aHitbreak
 0002:8010AA48       aHitSpBreak
 0002:8010AA58       aHitcpufault
 0002:8010AA68       aBrkInThreadD08
 0002:80180224       aC6q1242bdq44dd
 0002:801ABD08       dword_801ABD08
 0002:801B6B60       a0O
 0002:801B6C80       a6e6u5au6efffvf
 0002:801CEFFC       aGCca5dtdt2ddau
 0002:801D0101       byte_801D0101
 0002:801D03F4       aVwacdttu5d3qvu
 0002:801F00A0       dword_801F00A0
 0002:801F10A0       dword_801F10A0
 0002:801F53BC       dword_801F53BC
 0002:801F6D29       aQTddtesqsudtc3
 0002:801FCF54       aD4abu6urvweqbd
 0002:801FDFF0       dword_801FDFF0
 0002:802130A9       aNQKQNNar0ao21
 0002:80219738       a4eauo44qb7q5ut
 0002:8021978C       aCb2
 0002:802199B0       aAwv5r24u1a7d4d
 0002:8021E3C0       aD5caeDsdf5q122
 0002:80220744       aC1535bc42cWweu
 0002:80224278       aBb1qce3r45dqbe
 0002:802255F0       aDgt43Qft0recq
 0002:80234B84       aQCe
 0002:8023FB84       dword_8023FB84
 0002:80241408       loc_80241408
 0002:80249968       a0Tffadcuufgfea
 0002:80249D58       aFEvq33ttevedaf
 0002:8024AE38       a1gusca
 0002:8024AFC4       aCDtqduetueddqc
 0002:8024EA40       aQ4S5t55cqe4e3
 0002:8024EC25       a2a1
 0002:8024ED74       a446vwwddqdS1
 0002:8024EF44       aB5addvvegfgaff
 0002:80254798       dword_80254798
 0002:80265AA8       aCcfcSbDc2cc
 0002:80271DAC       a323vevw3ggweeg
 0002:80272F7D       a3gc23tctdsdsww
 0002:80273665       a13ceffc3ccssdb
 0002:80275568       a2cdteecftsstet
 0002:8027573C       a400
 0002:80275BF8       aS4c
 0002:80275D51       aFuevgccc2232S0
 0002:80275EB4       aUusvfvu54cC2Tu
 0002:80276221       a34dcc4Ccdtvvew
 0002:80276668       aScBceffvcd3
 0002:80276734       aEvfcgvvgvv4csv
 0002:8027679C       a22deds4sd
 0002:80276A3D       a4c355tevfucddd
 0002:80279E70       aEucfvfgfvwgcee
 0002:8027A874       aDefvc3cefvufvc
 0002:8027B905       aDctdtugvggs3bb
 0002:8027BA58       a43dctcdtedevue
 0002:8027CDFD       a3t43esDtsTwcct
 0002:8027E05C       aTvc233Ceus3334
 0002:8027E224       a23cts3s44ebss4
 0002:8027E3BC       aD52o
 0002:8027E5F8       a45cf3tv7fwwfvc
 0002:802D53E8       dword_802D53E8
 0002:803051A4       aRdc5
 0002:803051C8       aTatd
 0002:803051D0       aV3srw
 0002:80305291       aSDtgctWcgWcTCG
 0002:803052B9       aSgfwuc
 0002:803052C4       aWWcWTc
 0002:803052CF       aWWaddddcwWaddt
 0002:8030CD68       dword_8030CD68
 0002:80310C90       aGspucddqucaddq
 0002:80311E18       a7sc7gdsdwwpsGd
 0002:80314764       a3a33331c7gt176
 0002:80315074       aTttsTGsTcSpgcw
 0002:803152AC       aC2fc333aAS
 0002:8031FF98       dword_8031FF98
 0002:80323AFD       aEddsdddesuutds
 0002:8032B735       aCgpTaddddadddd
 0002:8032EEA8       aCpA
 0002:8032EF40       aB3s333s3p713
 0002:8032EF60       a3dgdd3gddd3dgd
 0002:80332F08       aCpA_0
 0002:80332FA0       aB3s333s3p713_0
 0002:80332FC0       a3dgdd3gddd3dgd_0
 0002:80333D48       aCduUswa4tswgTc
 0002:8034556C       aPkPqqlPqaaP4
 0002:8034AB55       aAWs
 0002:8034ABED       aWclTlbp
 0002:8034ACD4       a2f333233fgCBbB
 0002:80352CAC       dword_80352CAC
 0002:80362355       a1A
 0002:803625D4       a21ed3Ds
 0002:80362758       aBtueu1uuwvwwgu
 0002:80362B88       a43r51
 0002:80362C84       aTufs444de5ttsu
 0002:80362D5C       a5gvstdutdfetse
 0002:80370DC3       byte_80370DC3
 0002:803719DC       dword_803719DC
 0002:80372970       aD4bseetuffq1sb
 0002:80372998       aS224ecdfsvfuuu
 0002:803A26F0       a242Cu3sfSFccse
 0002:803F3858       dword_803F3858
 0002:803FB838       a3ccdfuvwwwcgee
 0002:803FFCAD       aOse
 0002:803FFE7D       aCC4tscdtcuefee
 0002:8040734D       byte_8040734D
 0002:8040CD6C       aC42b1MsstRR
 0002:8043C69C       aFS1Vv3duvseUv5
 0002:8043FEB0       dword_8043FEB0
 0002:8044DA50       aDs2E5SdfcuTe5s
 0002:8048043C       a1sws3tddvvfgc3
 0002:80480524       aCe5useevevfwvs
 0002:804AAE5D       aUfvvFbeUcguusd
 0002:804D34E0       a1244p333cdp45C
 0002:804D3849       a44gggD5dedfuwp
 0002:804D40D0       a354eEuufwgvwpc
 0002:804DD9D4       aGfv3D31vvegfcd
 0002:804E03D0       a0b1Wuqs2dut33u
 0002:804E046C       aTe4gat2esduuda
 0002:805001A3       byte_805001A3
 0002:805002FC       aD54
 0002:8050076C       aStwa
 0002:80500911       aQBEedvwqggws1d
 0002:80506D04       aNga
 0002:80506E64       a5EqC4ad4dq5e4u
 0002:80509748       a0ceddstu50rsce
 0002:8053A22C       aDeC55e2qc33424
 0002:8054BF00       dword_8054BF00
 0002:805579A4       aQ1w
 0002:80557DF8       a51ebd4wQg2w3ew
 0002:8057B77C       a21ruFc5gb1eusc
 0002:805919E0       aQ2Us4ddat4d5b
 0002:8059E448       aFve
 0002:8059E5A5       a3uef50veduutuu
 0002:8059F660       a6fgda3sdc
 0002:805A16B8       a2d3d50ueuwgfgf
 0002:805EE5B5       aW426auwd2Vwba2
 0002:805EE76D       aBeeeva3345ee3c
 0002:8061DCAD       aPRt200
 0002:8061DCDD       aB3sebtTuveffuu
 0002:8061DD1C       a13334Ccssd2cP
 0002:8061E344       aB1eB143brT5ede
 0002:8061E415       aAvc0655cfueu2
 0002:8061EA3C       a4cd0143cctct3B
 0002:8061EB80       a32
 0002:8061F1CD       aCRr5crtDersddr
 0002:8061FA88       aBvPa
 0002:8061FE18       a3cc0csfsvfvgB5
 0002:806206A8       aSvbwg0c5dcdvef
 0002:80621F48       dword_80621F48
 0002:8063D8C8       aCC
 0002:8063D8CD       aC
 0002:8064A049       aB
 0002:8064A055       aB_0
 0002:806632F4       aGGE
 0002:80663304       aEEEEEEEGG
 0002:80664AD4       aDDDLLalalalalL
 0002:80666944       aEE
 0002:80666949       aE
 0002:80666955       aCEE
 0002:80666961       aEEEEE
 0002:806669D4       aEEEEEEEEEEEEE
 0002:80667584       aEEEEEEEEE
 0002:806675B4       aEEEEEEEE
 0002:8068CE10       loc_8068CE10
 0002:8068CE28       loc_8068CE28
 0002:8068CE34       loc_8068CE34
 0002:8068CE58       loc_8068CE58
 0002:8068D090       loc_8068D090
 0002:8068D09C       loc_8068D09C
 0002:8068D0A8       loc_8068D0A8
 0002:8068D120       loc_8068D120
 0002:8068D12C       loc_8068D12C
 0002:8068D138       loc_8068D138
 0002:8068D1BC       loc_8068D1BC
 0002:8068D1C8       loc_8068D1C8
 0002:8068D1D4       loc_8068D1D4
 0002:8068D328       loc_8068D328
 0002:8068D334       loc_8068D334
 0002:8068D340       loc_8068D340
 0002:8068D3B8       loc_8068D3B8
 0002:8068D3C4       loc_8068D3C4
 0002:8068D3D0       loc_8068D3D0
 0002:8068D450       loc_8068D450
 0002:8068D45C       loc_8068D45C
 0002:8068D468       loc_8068D468
 0002:8068DFAC       loc_8068DFAC
 0002:8068DFC0       loc_8068DFC0
 0002:8068E22C       loc_8068E22C
 0002:8068E238       loc_8068E238
 0002:8068E244       loc_8068E244
 0002:8068E2BC       loc_8068E2BC
 0002:8068E2C8       loc_8068E2C8
 0002:8068E2D4       loc_8068E2D4
 0002:8068E354       loc_8068E354
 0002:8068E360       loc_8068E360
 0002:8068E36C       loc_8068E36C
 0002:8068E478       loc_8068E478
 0002:8068E484       loc_8068E484
 0002:8068E490       loc_8068E490
 0002:8068E508       loc_8068E508
 0002:8068E514       loc_8068E514
 0002:8068E520       loc_8068E520
 0002:8068E5A4       loc_8068E5A4
 0002:8068E5B0       loc_8068E5B0
 0002:8068E5BC       loc_8068E5BC
 0002:8068E6C4       loc_8068E6C4
 0002:8068E6D0       loc_8068E6D0
 0002:8068E6DC       loc_8068E6DC
 0002:8068E754       loc_8068E754
 0002:8068E760       loc_8068E760
 0002:8068E76C       loc_8068E76C
 0002:8068E7F0       loc_8068E7F0
 0002:8068E7FC       loc_8068E7FC
 0002:8068E808       loc_8068E808
 0002:8068E910       loc_8068E910
 0002:8068E91C       loc_8068E91C
 0002:8068E928       loc_8068E928
 0002:8068E9A0       loc_8068E9A0
 0002:8068E9AC       loc_8068E9AC
 0002:8068E9B8       loc_8068E9B8
 0002:8068EA3C       loc_8068EA3C
 0002:8068EA48       loc_8068EA48
 0002:8068EA54       loc_8068EA54
 0002:8068EB08       loc_8068EB08
 0002:8068EB14       loc_8068EB14
 0002:8068EB20       loc_8068EB20
 0002:8068EB98       loc_8068EB98
 0002:8068EBA4       loc_8068EBA4
 0002:8068EBB0       loc_8068EBB0
 0002:8068EC30       loc_8068EC30
 0002:8068EC3C       loc_8068EC3C
 0002:8068EC48       loc_8068EC48
 0002:8068ED84       loc_8068ED84
 0002:8068ED90       loc_8068ED90
 0002:8068ED9C       loc_8068ED9C
 0002:8068EE14       loc_8068EE14
 0002:8068EE20       loc_8068EE20
 0002:8068EE2C       loc_8068EE2C
 0002:8068EEAC       loc_8068EEAC
 0002:8068EEB8       loc_8068EEB8
 0002:8068EEC4       loc_8068EEC4
 0002:8068F950       loc_8068F950
 0002:8068F968       loc_8068F968
 0002:8068F980       loc_8068F980
 0002:8068F984       loc_8068F984
 0002:8068FA24       loc_8068FA24
 0002:8068FA2C       loc_8068FA2C
 0002:8068FA4C       loc_8068FA4C
 0002:8068FA58       loc_8068FA58
 0002:8068FA88       loc_8068FA88
 0002:8068FB04       loc_8068FB04
 0002:8068FB0C       loc_8068FB0C
 0002:8068FB2C       loc_8068FB2C
 0002:8068FB38       loc_8068FB38
 0002:8068FB64       loc_8068FB64
 0002:8068FEAC       loc_8068FEAC
 0002:8068FEB4       loc_8068FEB4
 0002:8068FED4       loc_8068FED4
 0002:8068FF10       loc_8068FF10
 0002:8068FF78       loc_8068FF78
 0002:8068FF80       loc_8068FF80
 0002:8068FFA0       loc_8068FFA0
 0002:8068FFAC       loc_8068FFAC
 0002:8068FFD8       loc_8068FFD8
 0002:806901F8       loc_806901F8
 0002:80690210       loc_80690210
 0002:80690228       loc_80690228
 0002:8069022C       loc_8069022C
 0002:806902C4       loc_806902C4
 0002:806902CC       loc_806902CC
 0002:806902EC       loc_806902EC
 0002:806902F8       loc_806902F8
 0002:80690324       loc_80690324
 0002:80690384       loc_80690384
 0002:8069038C       loc_8069038C
 0002:806903AC       loc_806903AC
 0002:806903B8       loc_806903B8
 0002:806903E4       loc_806903E4
 0002:80690E98       sub_80690E98
 0002:80690F8C       loc_80690F8C
 0002:80690F90       loc_80690F90
 0002:80690FD0       loc_80690FD0
 0002:80690FD4       loc_80690FD4
 0002:80690FF0       loc_80690FF0
 0002:80690FF4       loc_80690FF4
 0002:80691024       loc_80691024
 0002:80691028       loc_80691028
 0002:80691044       loc_80691044
 0002:80691048       loc_80691048
 0002:806910B8       loc_806910B8
 0002:806910C0       loc_806910C0
 0002:806910E0       loc_806910E0
 0002:806910EC       loc_806910EC
 0002:80691120       loc_80691120
 0002:80691128       loc_80691128
 0002:80691148       loc_80691148
 0002:80691154       loc_80691154
 0002:806911A8       loc_806911A8
 0002:80691B9C       aNode
 0002:80691BA4       aN64demoProcess
 0002:806927A4       aNnno
 0002:80693E60       nullsub_8
 0002:80694D28       aNode_0
 0002:80694D30       aTitledemoProce
 0002:80694D44       aNode_1
 0002:80694D4C       aKeymessage
 0002:80694D58       aNode_2
 0002:80694D60       aMainlogo
 0002:80694D6C       aNode_3
 0002:80694D74       aLangmenu
 0002:80694D80       aNode_4
 0002:80694D88       aWhitefader
 0002:80694D94       aNode_5
 0002:80694D9C       aGamedemoProces
 0002:80694DB0       aProcess
 0002:80696920       loc_80696920
 0002:806972DC       loc_806972DC
 0002:806996A8       sub_806996A8
 0002:806996F4       loc_806996F4
 0002:80699BFC       loc_80699BFC
 0002:8069A6AC       loc_8069A6AC
 0002:8069A6B0       loc_8069A6B0
 0002:8069A7B8       loc_8069A7B8
 0002:8069A7D4       locret_8069A7D4
 0002:8069B788       loc_8069B788
 0002:8069B78C       loc_8069B78C
 0002:8069BED8       sub_8069BED8
 0002:8069E858       aDatamanager
 0002:8069E864       aNode_6
 0002:8069ED30       aEgij
 0002:8069ED3C       aKige
 0002:8069F628       a0executiveProd
 0002:8069F63C       a1hiroshiYamauc
 0002:8069F660       a1shigeruMiyamo
 0002:8069F694       a1mitsuhiroTaka
 0002:8069F6AC       a0assistantDire
 0002:8069F6C0       a1hiroYamada
 0002:8069F6D4       a0mainProgramme
 0002:8069F6E8       a1gilesGoddard
 0002:8069F6FC       a0programmer
 0002:8069F708       a1colinReed
 0002:8069F718       a0comAiCamera
 0002:8069F72C       a0programmer_0
 0002:8069F738       a1shunsakuKitam
 0002:8069F750       a0artDirector
 0002:8069F760       a1yoshitakaNish
 0002:8069F77C       a0cgCharacterDe
 0002:8069F794       a1hiroakiTakena
 0002:8069F7C0       a1katsuhikoKann
 0002:8069F7D8       a02dDesigner
 0002:8069F7E8       a1tomoakiNakaha
 0002:8069F810       a1hidekiOkawa
 0002:8069F834       a1shinyaTakahas
 0002:8069F848       a1tsuyoshiWatan
 0002:8069F85C       a1jinIkeda
 0002:8069F868       a1hiroshiMatsun
 0002:8069F880       a0soundComposer
 0002:8069F890       a1kentaNagata
 0002:8069F904       a1wataruYamaguc
 0002:8069F918       a1gilesGoddard_0
 0002:8069F928       a1michikoYomo
 0002:8069F938       a1satoruTakizaw
 0002:8069F950       a0technicalSupp
 0002:8069F964       a1hironobuKakui
 0002:8069F974       a1shinHasegawa
 0002:8069F988       a0progressManag
 0002:8069F9A0       a1kimiyoshiFuku
 0002:8069F9B4       a1keizoKato
 0002:8069F9C4       a0specialThanks
 0002:8069F9D8       a1atsushiTejima
 0002:8069F9E8       a1hajimeKitagaw
 0002:8069F9FC       a1jimWornell
 0002:8069FA0C       a1kayomiMcdonal
 0002:8069FA20       a1colinPalmer
 0002:8069FA34       a1superMarioClu
 0002:8069FA4C       a1eadDebuggingS
 0002:8069FA64       a1noaDebuggingS
 0002:8069FA80       a1lamarSnowboar
 0002:8069FA98       a1tommyHilfiger
 0002:8069FB04       a9
 0002:8069FBCC       aYay0
 0002:8069FDE1       aNode_7
 0002:8069FDE9       aMgrraceProcess
 0002:8069FDF9       aNewReplayPleas
 0002:8069FE3E       aDatamanager_0
 0002:806A5438       aNode_8
 0002:806A5440       aArcraceProcess
 0002:806A5450       aProcess_0
 0002:806A5458       aD
 0002:806A545C       aNode_9
 0002:806A5464       aDatamanager_1
 0002:806A5508       aNode_10
 0002:806A5510       aArcmenuProcess
 0002:806A5588       loc_806A5588
 0002:806A55EC       loc_806A55EC
 0002:806A5644       loc_806A5644
 0002:806A5660       loc_806A5660
 0002:806A56C4       loc_806A56C4
 0002:806A56D0       loc_806A56D0
 0002:806A56E4       sub_806A56E4
 0002:806A570C       loc_806A570C
 0002:806A5720       loc_806A5720
 0002:806A5758       loc_806A5758
 0002:806A5770       loc_806A5770
 0002:806A577C       loc_806A577C
 0002:806A5788       sub_806A5788
 0002:806A57A8       loc_806A57A8
 0002:806A5ABC       loc_806A5ABC
 0002:806A5AD4       loc_806A5AD4
 0002:806A5AF4       loc_806A5AF4
 0002:806A5BBC       loc_806A5BBC
 0002:806A5BD0       sub_806A5BD0
 0002:806A5C48       loc_806A5C48
 0002:806A5C7C       loc_806A5C7C
 0002:806A5C84       loc_806A5C84
 0002:806A5CE8       loc_806A5CE8
 0002:806A645C       locret_806A645C
 0002:806A6480       locret_806A6480
 0002:806A64E8       locret_806A64E8
 0002:806A7A4C       nullsub_9
 0002:806A7A54       nullsub_10
 0002:806A7A5C       nullsub_11
 0002:806A7F04       aIxk
 0002:806AAA38       aNode_11
 0002:806AAA40       aH2hraceProcess
 0002:806AAA50       aProcess_1
 0002:806AAA58       aNode_12
 0002:806AAA60       aWhitefader_0
 0002:806AAA6C       aNode_13
 0002:806AAA74       a1p
 0002:806AAA78       aDWinC
 0002:806AAA84       a2p
 0002:806AAA88       aDWinC_0
 0002:806AAA94       aDatamanager_2
 0002:806AAABC       nullsub_12
 0002:806AAADC       sub_806AAADC
 0002:806AAB30       loc_806AAB30
 0002:806AAC84       loc_806AAC84
 0002:806AE58C       aYay0_0
 0002:806AE5C8       aNode_14
 0002:806AE5D0       aImraceProcess
 0002:806AE5DF       aWhyIsTheCInHer
 0002:806B6C78       sub_806B6C78
 0002:806B6C98       loc_806B6C98
 0002:806B6CF8       loc_806B6CF8
 0002:806B6D58       loc_806B6D58
 0002:806B6D64       loc_806B6D64
 0002:806B6D70       loc_806B6D70
 0002:806B6D7C       loc_806B6D7C
 0002:806B6DA0       sub_806B6DA0
 0002:806B6DAC       loc_806B6DAC
 0002:806B6DB8       loc_806B6DB8
 0002:806B6DC4       sub_806B6DC4
 0002:806B6DD0       sub_806B6DD0
 0002:806B8458       aOde
 0002:806B8460       aAinraceProcess
 0002:806B8474       aOcess
 0002:806B847A       aDatamanager_3
 0002:806B8486       aDS
 0002:806B8498       aIckIndxTooBig
 0002:806BC4E8       aGencourseProce
 0002:806BC568       aRoommodifieram
 0002:806BC59C       aOkafocuitemPar
 0002:806BC5B1       aYjnxy00
 0002:806BC5B9       aXfp
 0002:806BC5BD       aYxfcc
 0002:806BC5C3       aCfv2
 0002:806BC5C8       aOff2iixn
 0002:806BC5D1       aAm01234
 0002:806BC5D9       aPost
 0002:806BC5DE       aChy
 0002:806BC600       aZdowinwt
 0002:806BC609       aVoy
 0002:806BC60D       aYsp
 0002:806BC611       aHxyp
 0002:806BC616       aMzlfw
 0002:806BC61C       aScc012345678
 0002:806BC629       aC191lxy
 0002:806BC631       aCcccdtf
 0002:806BC639       aTpycheatWasOnC
 0002:806BC658       aTksmaingamebfg
 0002:806C3CA0       loc_806C3CA0
 0002:806CE0F0       aEve
 0002:806CE140       aDttttt3
 0002:806CFDE4       aDddddddddddddd
 0002:806CFE21       aDddddddddddddd_0
 0002:806CFE80       a3ddddd3
 0002:806D27B4       aO
 0002:806E2F18       a01
 0002:806E3120       a8
 0002:80707D80       a222
 0002:80708D84       a12222222
 0002:8070926D       a2K
 0002:80709369       a21
 0002:80709465       a12
 0002:80709561       a21_0
 0002:80709574       a22222
 0002:8071A910       aUUUUUU
 0002:80741B84       aOde_0
 0002:80741B8C       aNnewrecordsPro
 0002:80741BB8       aCachingLanguag
 0002:80741BCA       aNode_15
 0002:80741BD4       aInoptions
 0002:80741BDE       aNode_16
 0002:80741BE8       aCordoptions
 0002:8074BC40       aNnameenterProc
 0002:80775274       a1nJsq1m9q9q9q9
 0002:8077627C       a9q9q9p9q9q9q9p
 0002:807867E4       a012334567789
 0002:80786A88       a0012344567889
 0002:80789BB4       aCD2
 0002:80789CE8       a56ABDEFF
 0002:80789D07       aG
 0002:80789D09       aH
 0002:80789D0B       aI
 0002:80789D0D       aJ
 0002:80789D0F       aK
 0002:80789D11       aV
 0002:80789D80       a789cgl
 0002:807AB118       a0012344567889_0
 0002:807D20F3       byte_807D20F3
 0002:808060F4       dword_808060F4
 0002:80808080       dword_80808080
 0002:80808880       dword_80808880
 0002:80815330       dword_80815330
 0002:8086E618       aElv
 0002:8086E8C8       aTp0jw6d3mw20g7
 0002:80871B64       a01223
 0002:80871B90       a566789
 0002:80880000       loc_80880000
 0002:80885C3C       loc_80885C3C
 0002:8088D30C       dword_8088D30C
 0002:8089F040       a01233
 0002:8089F09C       aABbCdEFfGhIJjK
 0002:808C0000       loc_808C0000
 0002:808C071C       loc_808C071C
 0002:808C3748       a01134557899
 0002:808C39D0       aTUVwXYyZABCdEF
 0002:808C3A08       aOPQqRsTUuVwXYy
 0002:808C4BF8       loc_808C4BF8
 0002:808C9500       loc_808C9500
 0002:808C9514       loc_808C9514
 0002:808C952C       loc_808C952C
 0002:808CBFA8       aYay0_1
 0002:808CC020       aSpPK
 0002:808CC1AC       aRmscof
 0002:808CC1B3       aMxz
 0002:808CC1B7       aTcmiy
 0002:808CC1BD       aToy2
 0002:808CC1C2       aChy_0
 0002:808CC1C6       aSnowchaseactor
 0002:808CC1E1       aXmxy
 0002:808CC20C       aCoursemarkerWi
 0002:808CC21E       aExt
 0002:808CC222       aFlg
 0002:808CC226       aNode_17
 0002:808CC22D       aAie012
 0002:808CC234       aBd01tttuuujjjf
 0002:808CC246       aDdd56d7834
 0002:808CC251       aDppp2
 0002:808CC257       aSssmsssssss8
 0002:808CC444       loc_808CC444
 0002:808D3044       loc_808D3044
 0002:808E5020       aCCCCCCCCCCCCCC
 0002:808E6530       aJsjsjsjsjsjsjs
 0002:808E73FC       aJsI
 0002:808E744C       aJsI_0
 0002:808E74F5       aKKKK
 0002:808E7535       aKKKKK
 0002:808E7575       aKKKKK_0
 0002:808E75F5       aKKKKK_1
 0002:808E7635       aKKKKK_2
 0002:808E7675       aKKKKK_3
 0002:808EB4C0       aJsjsjsjsjsjsjs_0
 0002:808EB73D       aJsjsjsjsjsjsjs_1
 0002:808ECD25       aCjsjsjs
 0002:808ECE39       aC_0
 0002:808ED1A8       aJsjs
 0002:808ED37C       aJsjsjsjsjsjsjs_2
 0002:8094C87C       aAKrxUua6K9
 0002:80964698       a4Abcd205eF
 0002:809646E4       aUabCde6Qb5
 0002:80965760       a1cm92f1ujb6Lcp
 0002:809671FC       sub_809671FC
 0002:80969034       aTvtifLlzkeTcc7
 0002:80986468       aDmwwMwakkXlxYz
 0002:8098F039       aZaancoICbcss
 0002:80993250       a59DDd
 0002:8099330C       aAxaa
 0002:8099335C       aCaccxdAXXa95D5
 0002:809A3618       aKp62KkI5Z
 0002:809A377D       aEeeJj22a54J22D
 0002:809A5EF8       a504WwW00B00aA1
 0002:809A60E8       a1W3W10L75F13Jj
 0002:809A6974       aMnn0LO59Iff8
 0002:809A8040       aSprt
 0002:809A8045       aBxg
 0002:809D71DC       aIoP
 0002:809D7230       a7D79P5
 0002:809D7294       aYYy
 0002:809D72B8       aSo9
 0002:809D7414       aUwkssklvtwM79
 0002:809D8114       aPhh95Bd
 0002:809F6F48       a78589600249899
 0002:809F7040       a5956006
 0002:809F708C       a59abBA
 0002:809F7134       aFfckjnieklmnmm
 0002:809F8384       a011318
 0002:809F85FD       a99jjB7f9gK
 0002:809F86E4       aCfcJjj90Cf0f7g
 0002:809F8784       aO1364463c
 0002:809F87B1       a3cjjfc
 0002:809F8810       a7
 0002:809F88A0       aPp46p6p6pp4N
 0002:809F88C5       aHriqH
 0002:809F890D       aQH
 0002:809F8918       aQrhq4irqsbrhi4
 0002:809F8974       aDueteuututvteu
 0002:809F899C       aXywzedZzxXzZs5
 0002:809FB520       a14BBKMKKn4449h
 0002:809FB6CC       aFlsokwlyll6
 0002:809FB834       aBzcuu44u7sj6
 0002:809FB850       aBiusySS
 0002:809FB881       aOtl9vGvikngiwx
 0002:809FB8F0       aVxnumunzxBdecw
 0002:809FB918       aSnmoLng55BgiuZ
 0002:809FB9B1       aBvxbuZCeZuolyl
 0002:809FBA4C       aZucwxxxbFIIhzn
 0002:809FBAC8       a22aaa5A5BfbVix
 0002:809FBB04       aFfahib
 0002:809FBB34       aFbgv
 0002:809FBB51       aFGajDddHa5ggff
 0002:809FBB66       aBffah25GBGah5F
 0002:809FDCA4       a8773637
 0002:809FDD94       aGjjifgff
 0002:809FDEF4       aBbPuub
 0002:809FE074       aC216
 0002:809FE0B0       a9955A545
 0002:809FE344       a6bD8740911
 0002:80A01BA4       aRticleHandler
 0002:80A01BB8       aOwPuffs
 0002:80A01BC4       aWderParticleHa
 0002:80A01BDA       aSnowSpecs
 0002:80A01BE8       aRmalParticleHa
 0002:80A01BFE       aNormSpecs
 0002:80A01C0C       aEcParticleHand
 0002:80A1722C       aUl
 0002:80A1A8D4       aQYuqmkigfddbba
 0002:80A1A990       aVVrnlifdca9999
 0002:80A1AA8D       aAxzuqmjfdca987
 0002:80A1AB4C       aCzztolifcb9876
 0002:80A1ACCC       aEzysojgeca9865
 0002:80A1AD0B       aGzxrnjgeb87654
 0002:80A1AD4C       aGXrnjgdb876432
 0002:80A1AD8C       aFYsnjgec875532
 0002:80A1ADCC       aDyysnjgdca8865
 0002:80A1AF0D       aHYsokheca97754
 0002:80A1B318       a0aqYusqpnllkjj
 0002:80A1B618       aSknhdaChmjr
 0002:80A1B6D8       aXusqnmlkklnoqs
 0002:80A1B7B4       a9jkdZxusqomlll
 0002:80A1B878       aSkmhdaAdhmks
 0002:80A1ECBD       a4final
 0002:80A1ECC4       aNkaiVideoA
 0002:80A1ECE0       aDFeb4182004199
 0002:80A23018       aArderBumpLBrea
 0002:80A2302B       a70Dsc
 0002:80A23068       aArderNormalpos
 0002:80A2307D       a10Dsc
 0002:80A242A4       aArderNormalpos_0
 0002:80A242B9       a10Dsc_0
 0002:80A242F1       aBoarderTurnNor
 0002:80A2430A       a10Dsc_1
 0002:80A25A11       aBoarderTurnNor_0
 0002:80A25A2A       a10Dsc_2
 0002:80A2B5C1       aNew0117Crashin
 0002:80A2B5DC       a10Ds
 0002:80A2E729       aBoarderCrashin
 0002:80A2E742       a10Dsc_3
 0002:80A37ED1       aBoarderCrashin_0
 0002:80A37EEE       a10
 0002:80A3E4B9       aBoarderCrashin_1
 0002:80A3E4D6       a90
 0002:80A3F000       dword_80A3F000
 0002:80A44AA4       aArderPreJumpA
 0002:80A44AB5       a40Dsc
 0002:80A44AF1       aBoarderPreJump
 0002:80A44B06       a60Dsc
 0002:80A455D1       aBoarderCrashin_2
 0002:80A455EE       a10_0
 0002:80A4B9F9       aBoarderCrashin_3
 0002:80A4BA16       a10_1
 0002:80A51561       aBoarderCrashin_4
 0002:80A5157E       a20
 0002:80A531C1       aBoarderCrashin_5
 0002:80A531DA       a10Dsc_4
 0002:80A5A069       aBoarderBumpRBr
 0002:80A5A07F       a10Dsc_5
 0002:80A5DFC9       aBoarderBumpLBr
 0002:80A5DFDF       a10Dsc_6
 0002:80A61F29       aOpenNormFkF02
 0002:80A61F3B       a10Dsc_7
 0002:80A659E1       aBlindNormFkB02
 0002:80A659F4       a10Dsc_8
 0002:80A672D9       aFront360NormFk
 0002:80A672F4       a10Ds_0
 0002:80A6A451       aBlind360NormFk
 0002:80A6A46C       a10Ds_1
 0002:80A6E969       a0115180AirOpen
 0002:80A6E97D       a10Dsc_9
 0002:80A705E1       a0115180AirBlin
 0002:80A705F6       a10Dsc_10
 0002:80A72B19       a0115360AirOpen
 0002:80A72B2D       a10Dsc_11
 0002:80A75911       a0115360AirBlin
 0002:80A75926       a10Dsc_12
 0002:80A78709       aNormalFrontFli
 0002:80A7871D       a10Dsc_13
 0002:80A7A8C1       aNormalBackFlip
 0002:80A7A8D4       a10Dsc_14
 0002:80A7CDF9       aDeepPosSwStnf
 0002:80A7CE0B       a10Dsc_15
 0002:80A7FFB9       aBoarderTurnNPr
 0002:80A7FFD0       a20Dsc
 0002:80A80A99       aBoarderTurnNPr_0
 0002:80A80AB0       a30Dsc
 0002:80A81579       aBoarderTurnDpP
 0002:80A81591       a10Dsc_16
 0002:80A81959       aBoarderTurnDpP_0
 0002:80A81971       a10Dsc_17
 0002:80A84421       aNormalBFlipCra
 0002:80A84439       a10Dsc_18
 0002:80A86949       aBoarderYorokeA
 0002:80A8695D       a10Dsc_19
 0002:80A885A9       aBoarderYorokeB
 0002:80A885BD       a10Dsc_20
 0002:80A8A209       aBoarderYorokeC
 0002:80A8A21D       a10Dsc_21
 0002:80A8DACD       aBoarderCrashin_6
 0002:80A8DAEA       a50
 0002:80A8F730       aArderDeepposit
 0002:80A8F743       a10Dsc_22
 0002:80A9063D       aBoarderBrakeDp
 0002:80A90651       a10Dsc_23
 0002:80A912DD       aBoarderBrakeDp_0
 0002:80A912F1       a10Dsc_24
 0002:80A91F80       aArderWeightFDe
 0002:80A91F94       a10Dsc_25
 0002:80A91FD0       aArderWeightBDe
 0002:80A91FE4       a10Dsc_26
 0002:80A9201D       aBoarderUpDownD
 0002:80A92031       a10Dsc_27
 0002:80A92AFD       aBoarderLanding
 0002:80A92B10       a10Dsc_28
 0002:80A9411D       aBoarderBumpDpR
 0002:80A94130       a10Dsc_29
 0002:80A9663D       aBoarderBumpDpL
 0002:80A96650       a10Dsc_30
 0002:80A98CB0       aAdCrashingFSli
 0002:80A98CC6       a10Dsc_31
 0002:80AAD339       aMelonchollie81
 0002:80AAD34B       a10Dsc_32
 0002:80AAF4F4       aArderHeelEdgeG
 0002:80AAF509       a30Dsc_0
 0002:80ABBB24       aArderWHandG01
 0002:80ABBB36       a20Dsc_0
 0002:80ABBB74       aArderWHandG02
 0002:80ABBB86       a20Dsc_1
 0002:80ABBBC1       aNormalJtearAir
 0002:80ABBBD3       a40Dsc_0
 0002:80ABE0F9       aNormalBsHandpl
 0002:80ABE10E       a10Dsc_33
 0002:80AC3429       aNormalAlleyMct
 0002:80AC343F       a20Dsc_2
 0002:80AC6221       a0115540AirOpen
 0002:80AC6235       a10Dsc_34
 0002:80AC98D9       a0115720AirOpen
 0002:80AC98ED       a10Dsc_35
 0002:80ACD851       a0115900AirOpen
 0002:80ACD865       a10Dsc_36
 0002:80AD2409       a01161080AirOpe
 0002:80AD241E       a10Dsc_37
 0002:80AD7DC1       a0115540AirBlin
 0002:80AD7DD6       a10Dsc_38
 0002:80ADB479       a0115720AirBlin
 0002:80ADB48E       a10Dsc_39
 0002:80ADF3F1       a0115900AirBlin
 0002:80ADF406       a10Dsc_40
 0002:80AE3FA9       a01151080AirBli
 0002:80AE3FBF       a10Dsc_41
 0002:80AEFE11       a01161260AirOpe
 0002:80AEFE26       a10Dsc_42
 0002:80AF6949       a01161440AirOpe
 0002:80AF695E       a10Dsc_43
 0002:80AFDD41       a01161260AirBli
 0002:80AFDD57       a10Dsc_44
 0002:80B04879       a01161440AirBli
 0002:80B0488F       a10Dsc_45
 0002:80B0EA6D       aSelectKimati05
 0002:80B0EA7F       a20Dsc_3
 0002:80B28F4D       aSelectAkari041
 0002:80B28F60       a10Dsc_46
 0002:80B3C91D       byte_80B3C91D
 0002:80B4CD4C       aArderNormalpos_1
 0002:80B4CD61       a10Dsc_47
 0002:80B4CD99       aBoarderFkTurnN
 0002:80B4CDB1       a50Dsc
 0002:80B4E4B9       aBoarderFkTurnN_0
 0002:80B4E4D1       a20Dsc_4
 0002:80B4FBD9       aBoarderFkBrake
 0002:80B4FBED       a40Dsc_1
 0002:80B51839       aBoarderFkBrake_0
 0002:80B5184D       a60Dsc_0
 0002:80B53539       aBoarderFkUpDow
 0002:80B5354D       a30Dsc_1
 0002:80B54069       aNew0120FkCrash
 0002:80B54087       a10_2
 0002:80B571D1       aBoarderFkCrash
 0002:80B571ED       a170
 0002:80B5B9F9       aBoarderFkBumpR
 0002:80B5BA0C       a20Dsc_5
 0002:80B5DF19       aBoarderFkBumpL
 0002:80B5DF2C       a50Dsc_0
 0002:80B60439       aBoarderCrashin_7
 0002:80B60456       a170_0
 0002:80B66A21       aBoarderCrashin_8
 0002:80B66A3E       a80
 0002:80B6D0A9       aBoarderFkCrash_0
 0002:80B6D0C6       a140
 0002:80B72A51       aBoarderFkCrash_1
 0002:80B72A6E       a190
 0002:80B783F9       aBoarderFkCrash_2
 0002:80B78416       a50_0
 0002:80B7A059       aBoarderFkCrash_3
 0002:80B7A072       a120Dsc
 0002:80B80641       aBoarderFkBumpR_0
 0002:80B8065A       a40Dsc_2
 0002:80B845A1       aBoarderFkBumpL_0
 0002:80B845BA       a50Dsc_1
 0002:80B88501       aBlindFkNormB02
 0002:80B88514       a10Dsc_48
 0002:80B8C4F9       aOpenFkNormF02
 0002:80B8C50B       a10Dsc_49
 0002:80B8D8B1       a360FkFk360B01
 0002:80B8D8C4       a20Dsc_6
 0002:80B90A29       a360FkFk360F01
 0002:80B90A3C       a20Dsc_7
 0002:80B95121       aDeepPosSwStfn
 0002:80B95133       a10Dsc_50
 0002:80B98141       aBoarderYorokeF
 0002:80B98157       a10Dsc_51
 0002:80B99DA1       aBoarderYorokeF_0
 0002:80B99DB7       a20Dsc_8
 0002:80B9BA01       aBoarderYorokeF_1
 0002:80B9BA17       a20Dsc_9
 0002:80B9F5E5       aCrashF1rotDead
 0002:80B9F5F9       a10Dsc_52
 0002:80BA46C5       aCrashF1rotDead_0
 0002:80BA46D9       a10Dsc_53
 0002:80BA97A5       aNew3BumpRBreak
 0002:80BA97BA       a10Dsc_54
 0002:80BAC745       aNew4BumpLBreak
 0002:80BAC75A       a10Dsc_55
 0002:80BAF6E5       aDead2CrashBsid
 0002:80BAF6FD       a10Dsc_56
 0002:80BB7C45       aDead2CrashFsid
 0002:80BB7C5D       a10Dsc_57
 0002:80BC0245       aDead2CrashBsid_0
 0002:80BC025D       a10Dsc_58
 0002:80BC87A5       aDead2CrashFsid_0
 0002:80BC87BD       a10Dsc_59
 0002:80BD0D05       aNew3BumpRBreak_0
 0002:80BD0D1A       a10Dsc_60
 0002:80BD3CA5       aCrashF1rotDead_1
 0002:80BD3CB9       a10Dsc_61
 0002:80BD8D85       aDead2CrashFsid_1
 0002:80BD8D9D       a10Dsc_62
 0002:80BE12E5       aNew4BumpLBreak_0
 0002:80BE12FA       a10Dsc_63
 0002:80BE4825       aCrashF1rotDead_2
 0002:80BE4839       a10Dsc_64
 0002:80BE9905       aCrashF1rotDead_3
 0002:80BE9919       a10Dsc_65
 0002:80BF9E49       aBoarderGoalNR5
 0002:80BF9E5C       a40Dsc_3
 0002:80BFDDF9       aBoarderTimeUp6
 0002:80BFDE0B       a20Dsc_10
 0002:80C21010       dword_80C21010
 0002:80C35611       aEndingLose475b
 0002:80C35623       a20Dsc_11
 0002:80C82C11       aHpOmGoalWin52
 0002:80C82C24       a20Dsc_12
 0002:80C898D8       aEmake03EnvBin
 0002:80C89B88       aLfpipeItemBin
 0002:80C89F84       aLfpipeMarkBin
 0002:80C97A24       loc_80C97A24
 0002:80CC91A4       a7kkktvvvxiiiq4
 0002:80CD9CC4       aIIIIIIIIIIIIII
 0002:80CD9D4F       aC_1
 0002:80CDDB0C       aCCCCCCCCC
 0002:80CDDB24       aCCCCCCCCC_0
 0002:80CF80B4       loc_80CF80B4
 0002:80D02CD4       dword_80D02CD4
 0002:80D12D28       loc_80D12D28
 0002:80D1A25C       aOooooooooooooo
 0002:80D1A26E       aOooooooooooooo_0
 0002:80D1A27D       aOooooooooooooo_1
 0002:80D1A28C       aOooooooooooooo_2
 0002:80D1A29B       aOooooooooooooo_3
 0002:80D1A2AA       aOooooooooooooo_4
 0002:80D1A2B9       aOooooooooooooo_5
 0002:80D1A2C8       aOooooooooooooo_6
 0002:80D1A2D7       aOooooooooooooo_7
 0002:80D1A905       a333ddduuufffff
 0002:80D1AAE0       a3333dddduuuuff
 0002:80D1AEE0       a3333ddduuufffu
 0002:80D1B058       a33333dddduuuff
 0002:80D3E940       aHH
 0002:80D47CDC       aBBBBBB
 0002:80D4E230       aBBB
 0002:80D4E248       aB_1
 0002:80D4E294       aBBBBBBBB
 0002:80D4EF4C       aHH_0
 0002:80D50D1C       aCCCC
 0002:80D50D28       aCCCCC
 0002:80D5C948       aKykykycykykyky
 0002:80D5EB24       aQX
 0002:80D61614       aHMK
 0002:80D70144       aCC_0
 0002:80D741A4       loc_80D741A4
 0002:80D79E38       aCMDLDDLgdLi
 0002:80D7BEE1       aTCC79c9c9c9c9c
 0002:80D7BF28       aC7c9c9c9c9c9c9
 0002:80D7BF65       aKwc99c9c9c9c9c
 0002:80D7BFA8       aC7c9c9c9c9c9c9_0
 0002:80D7BFE8       aSu9c7c9c9c9c9c
 0002:80D7C029       aEkw9c9c9c9c9c9
 0002:80D92998       aCMDLDDLgdLi_0
 0002:80D94A41       aTCC79c9c9c9c9c_0
 0002:80D94A88       aC7c9c9c9c9c9c9_1
 0002:80D94AC5       aKwc99c9c9c9c9c_0
 0002:80D94B08       aC7c9c9c9c9c9c9_2
 0002:80D94B48       aSu9c7c9c9c9c9c_0
 0002:80D94B89       aEkw9c9c9c9c9c9_0
 0002:80D99BE8       aC9c9c9c9c9c9c9
 0002:80DA0F9C       aDoo
 0002:80DA9F44       loc_80DA9F44
 0002:80DB8A24       aTTiTTTitTTTTiI
 0002:80DD5B60       aEdDgdedDgdedDe
 0002:80DD5E18       aDDDDEGdDEdedDe
 0002:80DD8520       aRurururwrururu
 0002:80DDF784       aTTiTTTitTTTTiI_0
 0002:80DFC03E       word_80DFC03E
 0002:80DFC948       aDDGDEGDDDedgEd
 0002:80DFCB78       aDDDDEGdDEdedDe_0
 0002:80DFF280       aRurururwrururu_0
 0002:80E0A9B8       loc_80E0A9B8
 0002:80E0A9C4       loc_80E0A9C4
 0002:80E0D4E4       loc_80E0D4E4
 0002:80E7ABD8       loc_80E7ABD8
 0002:80E7ABE0       loc_80E7ABE0
 0002:80E7ACC8       loc_80E7ACC8
 0002:80E7ACD0       loc_80E7ACD0
 0002:80E7B218       loc_80E7B218
 0002:80E7B220       loc_80E7B220
 0002:80E7C324       loc_80E7C324
 0002:80E7C32C       loc_80E7C32C
 0002:80E7C374       loc_80E7C374
 0002:80E7C37C       loc_80E7C37C
 0002:80E7FB78       loc_80E7FB78
 0002:80E7FB80       loc_80E7FB80
 0002:80E7FC68       loc_80E7FC68
 0002:80E7FC70       loc_80E7FC70
 0002:80E801B8       loc_80E801B8
 0002:80E801C0       loc_80E801C0
 0002:80E812C4       loc_80E812C4
 0002:80E812CC       loc_80E812CC
 0002:80E81314       loc_80E81314
 0002:80E8131C       loc_80E8131C
 0002:80E834EC       loc_80E834EC
 0002:80E95960       loc_80E95960
 0002:80E959BC       loc_80E959BC
 0002:80E9F2C4       aRomMap5DataUso
 0002:80E9F2D8       aRomBg1texUso
 0002:80E9F2E8       aRomMap6DataUso
 0002:80E9F2FC       aRomBg7texUso
 0002:80E9F30C       aRomOnemakeItem
 0002:80E9F324       aRomOnemakeMark
 0002:80E9F33C       aRomOnemake03En
 0002:80E9F354       aRomMap1DataUso
 0002:80E9F368       aRomBg4texUso
 0002:80E9F378       aRomHalfpipeMar
 0002:80E9F390       aRomHalfpipeIte
 0002:80E9F3A8       aRomHalfpipeEnv
 0002:80E9F3C0       aRomMap7DataUso
 0002:80E9F3D4       aRomBg4texUso_0
 0002:80E9F3E4       aRomMap02ItemBi
 0002:80E9F3F8       aRomMap02MarkBi
 0002:80E9F40C       aRomMap02EnvBin
 0002:80E9F420       aRomMap02aEnvBi
 0002:80E9F434       aRomMap02bEnvBi
 0002:80E9F448       aRomMap4DataUso
 0002:80E9F45C       aRomBg1texUso_0
 0002:80E9F46C       aRomMap04MarkBi
 0002:80E9F480       aRomMap04ItemBi
 0002:80E9F494       aRomMap04EnvBin
 0002:80E9F4A8       aRomMap04aEnvBi
 0002:80E9F4BC       aRomMap04bEnvBi
 0002:80E9F4D0       aRomMap3DataUso
 0002:80E9F4E4       aRomBg2texUso
 0002:80E9F4F4       aRomMap03MarkBi
 0002:80E9F508       aRomMap03ItemBi
 0002:80E9F51C       aRomMap03EnvBin
 0002:80E9F530       aRomMap03aEnvBi
 0002:80E9F544       aRomMap03bEnvBi
 0002:80E9F558       aRomMap8DataUso
 0002:80E9F56C       aRomBg3texUso
 0002:80E9F57C       aRomMap05ItemBi
 0002:80E9F590       aRomMap05MarkBi
 0002:80E9F5A4       aRomMap05EnvBin
 0002:80E9F5B8       aRomMap05aEnvBi
 0002:80E9F5CC       aRomMap05bEnvBi
 0002:80E9F5E0       aRomMap2DataUso
 0002:80E9F5F4       aRomBg5texUso
 0002:80E9F604       aRomMap06ItemBi
 0002:80E9F618       aRomMap06MarkBi
 0002:80E9F62C       aRomMap06EnvBin
 0002:80E9F640       aRomMap06EnvBin_0
 0002:80E9F654       aRomMap06aEnvBi
 0002:80E9F668       aRomMap9DataUso
 0002:80E9F67C       aRomBg6texUso
 0002:80E9F68C       aRomMap07ItemBi
 0002:80E9F6A0       aRomMap07MarkBi
 0002:80E9F6B4       aRomMap02EnvBin_0
 0002:80E9F6C8       aRomMap10DataUs
 0002:80E9F6DC       aRomBg8texUso
 0002:80E9F6EC       aRomMap01ItemBi
 0002:80E9F700       aRomMap01MarkBi
 0002:80E9F714       aRomMap02EnvBin_1
 0002:80E9F844       aRomTahoe151Uso
 0002:80E9F858       aRomMerlot147Us
 0002:80E9F86C       aRomBlin149Uso
 0002:80E9F87C       aRomScout156Uso
 0002:80E9F890       aRomTahoe155Uso
 0002:80E9F8A4       aRomScoutltd162
 0002:80E9F8B8       aRomMerlot143Us
 0002:80E9F8CC       aRomBlin154Uso
 0002:80E9F8DC       aRomPenguinUso
 0002:80E9F8EC       aRomBoard1Bin
 0002:80E9F8FC       aRomBoard1Bin_0
 0002:80E9F90C       aRomBoard2Bin
 0002:80E9F91C       aRomBoard3Bin
 0002:80E9F92C       aRomBoard4Bin
 0002:80E9F93C       aRomBoard5Bin
 0002:80E9F94C       aRomBoard6Bin
 0002:80E9F95C       aRomBoard7Bin
 0002:80E9F96C       aRomBoard8Bin
 0002:80E9F97C       aRomBoard9Bin
 0002:80E9F98C       aRomPlayer1Bin
 0002:80E9F99C       aRomPlayer2Bin
 0002:80E9F9AC       aRomPlayer3Bin
 0002:80E9F9BC       aRomPlayer4Bin
 0002:80E9F9CC       aRomPlayer5Bin
 0002:80E9F9DC       aRomPlayer6Bin
 0002:80E9F9EC       aRomPlayer7Bin
 0002:80E9F9FC       aRomPlayer8Bin
 0002:80E9FA0C       aRomBoarder1Uso
 0002:80E9FA20       aRomBoarder2Uso
 0002:80E9FA34       aRomBoarder3Uso
 0002:80E9FA48       aRomBoarder4Uso
 0002:80E9FA5C       aRomBoarder5Uso
 0002:80E9FA70       aRomBoarder1Uso_0
 0002:80E9FA84       aRomBoarder1Uso_1
 0002:80E9FA98       aRomBoarder5Uso_0
 0002:80E9FC0C       aWaistJnt1
 0002:80E9FC18       aChestJnt1
 0002:80E9FC24       aChestJnt2
 0002:80E9FC30       aArmlJnt1
 0002:80E9FC3C       aArmlJnt2
 0002:80E9FC48       aArmlJnt3
 0002:80E9FC54       aArmlEff
 0002:80E9FC60       aArmrJnt1
 0002:80E9FC6C       aArmrJnt2
 0002:80E9FC78       aArmrJnt3
 0002:80E9FC84       aArmrEff
 0002:80E9FC90       aLeglJnt1
 0002:80E9FC9C       aLeglJnt2
 0002:80E9FCA8       aLeglJnt3
 0002:80E9FCB4       aLegrJnt1
 0002:80E9FCC0       aLegrJnt2
 0002:80E9FCCC       aLegrJnt3
 0002:80E9FCD8       aBoarderA
 0002:80E9FCE4       aN64demo
 0002:80E9FCEC       aTitledemo
 0002:80E9FCF8       aHead2head
 0002:80E9FD04       aMultigamerace
 0002:80E9FD14       aTimeattack
 0002:80E9FD20       aArcademode
 0002:80E9FD2C       aTrickmode
 0002:80E9FD38       aTraining
 0002:80E9FD44       aEditors
 0002:80E9FD4C       aNone
 0002:80E9FD54       aRomN64procUso
 0002:80E9FD64       aRomTitprocUso
 0002:80E9FD74       aRomH2hprocUso
 0002:80E9FD84       aRomMgrprocUso
 0002:80E9FD94       aRomTimprocUso
 0002:80E9FDA4       aRomArcprocUso
 0002:80E9FDB4       aRomTrkprocUso
 0002:80E9FDC4       aRomTrnprocUso
 0002:80E9FDD4       aRomEddprocUso
 0002:80E9FDE4       aRomGenprocUso
 0002:80E9FDF4       aRomNameentUso
 0002:80E9FE04       aRomGamegfxUso
 0002:80E9FE14       aRomCharselUso
 0002:80E9FE24       aRomCharspsUso
 0002:80E9FE34       aRomCharfirUso
 0002:80E9FE44       aRomCharmapUso
 0002:80EA0BC4       aU64
 0002:80EA0BCC       aIdle
 0002:80EA0BD4       aMain
 0002:80EA0BDC       aHio
 0002:80EA0BE4       aRcp
 0002:80EA0BEC       aFault
 0002:80EA0BF4       aCont
 0002:80EA0F04       aTlbModificatio
 0002:80EA0F20       aTlbExceptionOn
 0002:80EA0F4C       aTlbExceptionOn_0
 0002:80EA0F64       aAddressErrorOn
 0002:80EA0F90       aAddressErrorOn_0
 0002:80EA0FA8       aBusErrorExcept
 0002:80EA0FD4       aBusErrorExcept_0
 0002:80EA0FFC       aSystemCallExce
 0002:80EA1014       aBreakpointExce
 0002:80EA102C       aReservedInstru
 0002:80EA104C       aCoprocessorUnu
 0002:80EA106C       aArithmeticOver
 0002:80EA108C       aTrapException
 0002:80EA109C       aVirtualCoheren
 0002:80EA10CC       aFloatingPointE
 0002:80EA10F4       aWatchpointExce
 0002:80EA110C       aVirtualCoheren_0
 0002:80EA11C4       aUnimplementedO
 0002:80EA11DC       aInvalidOperati
 0002:80EA11F0       aDivisionByZero
 0002:80EA1204       aOverflow
 0002:80EA1210       aUnderflow
 0002:80EA121C       aInexactOperati
 0002:80EA1334       aUsoloadErrorLo
 0002:80EA1358       aUsoWarningNumD
 0002:80EA137C       aUsoErrorNumDDa
 0002:80EA1398       aBootupCodeSize
 0002:80EA13B0       aRunningMain
 0002:80EA13C0       aMainuso_0
 0002:80EA13C8       aMainuso_1
 0002:80EA13D0       aCantReloadMain
 0002:80EA13E8       aRetD
 0002:80EA13F0       aMemoryXX
 0002:80EA1400       aMainthreadStac
 0002:80EA141C       aIdlethreadStac
 0002:80EA1494       aAcosOutOfRange
 0002:80EA52F0       aKKKK_0
 0002:80EA5944       aKKKKKKKKKK
 0002:80EA7D28       aPoopStart
 0002:80EA7D34       aPoopEnd
 0002:80EA7D40       aPoopAddedSound
 0002:80EA7D58       aPoopRemovedSou
 0002:80EA7D74       aNaUpdpl
 0002:80EA7E98       aNode_18
 0002:80EA7EA0       aNode_19
 0002:80EA7EA8       aU64bgwall
 0002:80EA8620       aNode_20
 0002:80EA8628       aWorldRegistry
 0002:80EA8638       aOneMake
 0002:80EA8644       aHalfpipe
 0002:80EA8650       aSlalomCourse
 0002:80EA8660       aStuntCourse
 0002:80EA8670       aLongCourse
 0002:80EA867C       aNewCourse
 0002:80EA8688       aNightCourse
 0002:80EA8698       aBlackDiamond
 0002:80EA86A8       aPractice
 0002:80EA86B4       aTestGrid
 0002:80EA8B24       aRomGameUso
 0002:80EA8B34       aEffectuso
 0002:80EA8B40       aRomEffectsUso
 0002:80EA8B50       aRomSnoweffects
 0002:80EA8B64       aHeadnodes
 0002:80EA8B70       aMaingame
 0002:80EA8B7C       aBg
 0002:80EA8B80       aFg
 0002:80EA8B84       aEg
 0002:80EA8B88       aOg
 0002:80EA8B8C       aInitgame24f
 0002:80EA8BA4       aCreatemap24f
 0002:80EA8BBC       aCreateplayers2
 0002:80EA8BD8       aDdm
 0002:80EA8BDC       aImgfilemgr
 0002:80EA8BE8       aRomTricksBin
 0002:80EA8BF8       aUnknownGameMod
 0002:80EA8C0C       aLights
 0002:80EA8C14       aAmbientLight
 0002:80EA8C24       aInfiniteLight
 0002:80EA8C34       aShadowLight
 0002:80EA8C44       aLighttarget
 0002:80EA8C50       aSnowlookat
 0002:80EA8C5C       aRomCamInfoBin
 0002:80EA8C70       aRomCamCaBin
 0002:80EA8C80       aRomLookatCa2Bi
 0002:80EA8C94       aLookatchase
 0002:80EA8CA0       aRomLookatCaBin
 0002:80EA8CB4       aLookatchase_0
 0002:80EA8CC0       a3dwindow
 0002:80EA8CCC       aPlayers
 0002:80EA8CD4       aPlayer1
 0002:80EA8CDC       aPlayer2
 0002:80EA8CE4       aMountain
 0002:80EA8CF0       aPosY
 0002:80EA8CF8       aScaleY
 0002:80EA8D00       aScaleXz
 0002:80EA9594       aRomHeliUso
 0002:80EA95A4       aRomBalloonUso
 0002:80EA95B4       aRomBalloonUso_0
 0002:80EA95C4       aRomCheckpointU
 0002:80EA95D8       aRomCheckpointU_0
 0002:80EA95EC       aRomCheckpointU_1
 0002:80EA9600       aRomFireUso
 0002:80EA9610       aPyr
 0002:80EA9614       aRegisterS
 0002:80EA9624       aTr1
 0002:80EA9628       aTr2
 0002:80EA962C       aTr3
 0002:80EA9630       aTv
 0002:80EA9634       aTv1
 0002:80EA9638       aLight01
 0002:80EA9640       aL01
 0002:80EA9644       aLig
 0002:80EA9648       aGol
 0002:80EA964C       aSt0
 0002:80EA9650       aEn1
 0002:80EA9654       aEn2
 0002:80EA9658       aCam
 0002:80EA965C       aBgbox
 0002:80EA9664       aMnode
 0002:80EA966C       aCourse
 0002:80EA9674       aShpPgridNull
 0002:80EA9688       aMappropCpp
 0002:80EA9694       aMap
 0002:80EA9698       aEnd
 0002:80EA969C       aAdd
 0002:80EA96A0       aAngle
 0002:80EA96A8       aGeometry
 0002:80EA96B4       aItemmgr
 0002:80EA96BC       aSunFlare
 0002:80EA96C8       aRomFlare5Bin
 0002:80EA96D8       aSun
 0002:80EA96DC       aLen
 0002:80EA96E0       aLt0
 0002:80EA96E4       aLt1
 0002:80EA96E8       aBg_0
 0002:80EA96EC       aCourseshape
 0002:80EA96F8       aMap_0
 0002:80EA96FC       aMorphshape
 0002:80EA9708       aMorphpolyshape
 0002:80EA9718       aParsecmds
 0002:80EA9724       aColours
 0002:80EA972C       aInit
 0002:80EA9734       aMaplighter
 0002:80EA9740       aItemmgr_0
 0002:80EA9748       aSt0_0
 0002:80EA974C       aNoSt0
 0002:80EA9754       aGol_0
 0002:80EA9758       aNoGol
 0002:80EA9760       aMarkers
 0002:80EA9768       aMarkermgr
 0002:80EA9774       aEnvsettings
 0002:80EA9780       aEnvLoadS
 0002:80EA9790       aEnvSkipS
 0002:80EA97A0       aFallingsnow
 0002:80EA97AC       aNode_21
 0002:80EA97B4       aParms
 0002:80EA97D4       aParms_0
 0002:80EA9EF8       aQnode
 0002:80EA9F00       aShp
 0002:80EA9F04       aTooManyObjects
 0002:80EA9F20       aSnowb
 0002:80EA9F28       aNode_22
 0002:80EA9F30       aParms_1
 0002:80EA9F68       aSnowboarderPar
 0002:80EA9F7C       aHpf
 0002:80EA9F80       aSnf
 0002:80EA9F84       aDsf
 0002:80EA9F88       aIcf
 0002:80EA9F8C       aTfc
 0002:80EA9F90       aEdf
 0002:80EA9F94       aBdf
 0002:80EA9F98       aUre
 0002:80EA9F9C       aMro
 0002:80EA9FA0       aMpi
 0002:80EA9FA4       aMdr
 0002:80EA9FA8       aAxr
 0002:80EA9FAC       aAyr
 0002:80EA9FB0       aAzr
 0002:80EA9FB4       aTlt
 0002:80EA9FB8       aWfr
 0002:80EA9FBC       aSfr
 0002:80EA9FC0       aDts
 0002:80EA9FC4       aNts
 0002:80EA9FC8       aTrt
 0002:80EA9FCC       aTwt
 0002:80EA9FD0       aMin
 0002:80EA9FD4       aMax
 0002:80EA9FD8       aJmp
 0002:80EA9FDC       aDjp
 0002:80EA9FE0       aUfs
 0002:80EA9FE4       aBdm
 0002:80EA9FE8       aCdm
 0002:80EA9FEC       aTch
 0002:80EA9FF0       aTrails
 0002:80EA9FF8       aDispspray
 0002:80EAA004       aDisptrails
 0002:80EAA010       aDisptrails_0
 0002:80EAA01C       aNode_23
 0002:80EAA024       aNode_24
 0002:80EAA02C       aNode_25
 0002:80EAA034       aNode_26
 0002:80EAA03C       aAnimationdata
 0002:80EAA04C       aLighttarget_0
 0002:80EAA058       aGlobalOutOfRan
 0002:80EAA070       aTrails_0
 0002:80EAA078       aTrails_1
 0002:80EAA080       aGlobalOutOfRan_0
 0002:80EAA098       aGlobalOutOfRan_1
 0002:80EAA0B0       aGlobalOutOfRan_2
 0002:80EAA0C8       aGlobalOutOfRan_3
 0002:80EAA0E0       aGlobalOutOfRan_4
 0002:80EAA0F8       aGlobalOutOfRan_5
 0002:80EAA110       aGlobalOutOfRan_6
 0002:80EAA128       aGlobalOutOfRan_7
 0002:80EAA140       aGlobalOutOfRan_8
 0002:80EAA158       aGlobalOutOfRan_9
 0002:80EAA170       aGlobalOutOfRan_10
 0002:80EAA188       aGlobalOutOfRan_11
 0002:80EAA1A0       aGlobalOutOfRan_12
 0002:80EAA1B8       aGlobalOutOfRan_13
 0002:80EAA1D0       aGlobalOutOfRan_14
 0002:80EAA1E8       aGlobalOutOfRan_15
 0002:80EAA200       aGlobalOutOfRan_16
 0002:80EAA218       aNewGlassReflec
 0002:80EAA238       aPlnodelist
 0002:80EAA244       aUso
 0002:80EAA248       aBoard
 0002:80EAA250       aSnowbcol
 0002:80EAA25C       aSnowbcol_0
 0002:80EAA268       aMrk
 0002:80EAA26C       aPlayerPosReset
 0002:80EAA284       aSFFF
 0002:80EAA294       aSbproccoll
 0002:80EAA2A0       aSbproccoll_0
 0002:80EAA2AC       aHandicapSOn
 0002:80EAA2C0       aSnowb_0
 0002:80EAA2C8       aSnowbai
 0002:80EAA2D0       aSnowbai_0
 0002:80EAA2D8       aSnowbdyn
 0002:80EAA2E4       aSnowbdyn_0
 0002:80EAA2F0       aSnowbanm
 0002:80EAA2FC       aSnowbanm_0
 0002:80EAA308       aSnowbchild
 0002:80EAA314       aSnowbchild_0
 0002:80EAA320       aSnowb_1
 0002:80EAA328       aWin
 0002:80EAA330       aLose
 0002:80EAA338       aTimeout
 0002:80EAA344       aPlayerGotEndin
 0002:80EAA358       aEn1_0
 0002:80EAA35C       aEn2_0
 0002:80EAA360       aNoEndingMarker
 0002:80EAA524       aRomAudioSeqUso
 0002:80EAA538       aRomAudioWaveUs
 0002:80EAA54C       aRomAudioBankUs
 0002:80EAA560       aSnowboard
 0002:80EAA56C       aRomVersionBin
 0002:80EAA57C       aRomAnimsBin
 0002:80EAA58C       aNode_27
 0002:80EADD64       aNode_28
 0002:80EADD6C       aProcesswindow
 0002:80EADD7C       aNode_29
 0002:80EADD84       aQuitProcess
 0002:80EADD94       aNode_30
 0002:80EADD9C       aQuitProcess_0
 0002:80EADDAC       aNode_31
 0002:80EADDB4       aPausemenu
 0002:80EADDC0       aGameflow
 0002:80EADDCC       aFlow
 0002:80EADDD4       aRomGuiUso
 0002:80EADDE0       aRomFlowimgsBin
 0002:80EADDF4       aDS_0
 0002:80EADDFC       aFlowFreeBlocks
 0002:80EADE84       aDone
 0002:80EADF20       aNode_32
 0002:80EADF28       aFader
 0002:80EAE29C       aTimegadgetParm
 0002:80EAE2C8       aTimegadgetParm_0
 0002:80EAE308       aNode_33
 0002:80EAE310       aBesttimegadget
 0002:80EAE320       aDb02da02d
 0002:80EAE330       aNode_34
 0002:80EAE338       aBestscoregadge
 0002:80EAE348       a8d
 0002:80EAE350       aTimegadgetParm_1
 0002:80EAE398       aDa
 0002:80EAE3A0       aA
 0002:80EAE3A8       a02d
 0002:80EAE3B0       aNode_35
 0002:80EAE3B8       aPointsgadget
 0002:80EAE3C8       a8d_0
 0002:80EAE3D0       aNode_36
 0002:80EAE3D8       aPointsgadget_0
 0002:80EAE3E8       aD_0
 0002:80EAE3EC       aNode_37
 0002:80EAE3F4       aSpeedgadget
 0002:80EAE400       aD_1
 0002:80EAE408       aD_2
 0002:80EAE40C       aD_3
 0002:80EAE410       aNode_38
 0002:80EAE418       aBoardsgadget
 0002:80EAE428       aParms_2
 0002:80EAE430       aXps
 0002:80EAE434       aYps
 0002:80EAE438       aLbx
 0002:80EAE43C       aLby
 0002:80EAE440       aL2x
 0002:80EAE444       aL2y
 0002:80EAE448       aNode_39
 0002:80EAE450       aCoolgadget
 0002:80EAE45C       aParms_3
 0002:80EAE464       aXps_0
 0002:80EAE468       aYps_0
 0002:80EAE46C       aMx0
 0002:80EAE470       aMy0
 0002:80EAE474       aSx0
 0002:80EAE478       aSy0
 0002:80EAE47C       aMx1
 0002:80EAE480       aMy1
 0002:80EAE484       aGx0
 0002:80EAE488       aGy0
 0002:80EAE48C       aPxp
 0002:80EAE490       aPyp
 0002:80EAE494       aBxp
 0002:80EAE498       aByp
 0002:80EAE49C       aCol
 0002:80EAE4A0       aAdz
 0002:80EAE4A4       aNode_40
 0002:80EAE4AC       aCoursegadget
 0002:80EAE4BC       aMrk_0
 0002:80EAE4C0       aNode_41
 0002:80EAE4C8       aPointsgadget_1
 0002:80EAE4D8       aD_4
 0002:80EAE4DC       aSDPts
 0002:80EAE4E8       aDPts
 0002:80EAE4F0       aD_5
 0002:80EAE4F4       aD_6
 0002:80EAE4F8       aD_7
 0002:80EAE770       aColourParms
 0002:80EAE928       aRomNameentUso_0
 0002:80EAE938       aNode_42
 0002:80EAE940       aRomViewrecUso
 0002:80EAEC2C       aBackupChecking
 0002:80EAEC50       aResettingOptio
 0002:80EAEC68       aResettingCours
 0002:80EAEC80       aResettingArcad
 0002:80EAEC98       aResettingGhost
 0002:80EAECB0       aBackupSizeofRo
 0002:80EAECD0       aRb_1
 0002:80EAECD4       aWb
 0002:80EAEE68       aNode_43
 0002:80EAEE70       aChk
 0002:80EAEE74       aGtl
 0002:80EAEE78       aGtr
 0002:80EB09E0       loc_80EB09E0
 0002:80EB139C       loc_80EB139C
 0002:80EB33F0       aRspSwVersion20
 0002:80EB340F       aSgiU64GfxSwTea
 0002:80EB3BF0       aRspSwVersion20_0
 0002:80EB3C0F       aSgiU64GfxSwTea_0
 0002:80EB43F0       aRspSwVersion20_1
 0002:80EB440F       aSgiU64GfxSwTea_1
 0002:80EB4BF0       aRspSwVersion20_2
 0002:80EB4C0F       aSgiU64GfxSwTea_2
 0002:80EB53F0       aRspSwVersion20_3
 0002:80EB540F       aSgiU64GfxSwTea_3
 0002:80EB67F0       aRspGfxUcodeF3d
 0002:80EB6FF0       aRspGfxUcodeF3d_0
 0002:80EB77B0       aRspSwVersion20_4
 0002:80EB77CF       aSgiU64GfxSwTea_4
 0002:80EB7FF0       aRspGfxUcodeF3d_1
 0002:80EB87F0       aRspGfxUcodeF3d_2
 0002:80EB8FB0       aRspSwVersion20_5
 0002:80EB8FCF       aSgiU64GfxSwTea_5
 0002:80EBBAE0       aTerminateCance
 0002:80EBBB08       aSW
 0002:80EBBB10       aWS
 0002:80EBBB1C       aDLodDD
 0002:80EBBB30       aSResamplePitch
 0002:80EBBB60       aWarningKillNot
 0002:80EBBB78       aKillVoiceDIdDD
 0002:80EBBB94       aWarningRunning
 0002:80EBBBC4       aHeapNowXXX
 0002:80EBBBD8       aAudioMemoryHea
 0002:80EBBC08       aHeapInitHpXBas
 0002:80EBBC34       aAudioMemoryDat
 0002:80EBBC5C       aStayheapNotAll
 0002:80EBBC78       aAutoheapNotAll
 0002:80EBBC94       aStatusId0DId1D
 0002:80EBBCB0       aId0IsStopping
 0002:80EBBCC4       aId0IsStop
 0002:80EBBCD4       aId1IsStopping
 0002:80EBBCE8       aId1IsStop
 0002:80EBBCF8       aWarningNoFreeA
 0002:80EBBD18       aWarningNoStopA
 0002:80EBBD38       aAndTryForceToS
 0002:80EBBD60       aCheckId0SeqIdD
 0002:80EBBD84       aCheckId1SeqIdD
 0002:80EBBDA8       aNoFreeSeqArea
 0002:80EBBDBC       aChDIdD
 0002:80EBBDCC       aTwoSidesAreLoa
 0002:80EBBDF8       aWarningBeforeA
 0002:80EBBE20       aWarningAfterAr
 0002:80EBBE48       aMemorySzheapal
 0002:80EBBE70       aAudioMemorySzh
 0002:80EBBEA0       aAutoHeapUnhitF
 0002:80EBBEBC       aHeapReconstruc
 0002:80EBBED8       aTempoDF
 0002:80EBBF0C       aF
 0002:80EBBF14       aF_0
 0002:80EBBF1C       aSeqscaleF
 0002:80EBBF34       aVcFSfFDrFTpF
 0002:80EBBF50       aAhpbaseX
 0002:80EBBF5C       aAhpcurX
 0002:80EBBF68       aHeaptopX
 0002:80EBBF74       aSynoutrateDD
 0002:80EBBF8C       aFxsizeD
 0002:80EBBF98       aFxcompD
 0002:80EBBFA4       aFxdownD
 0002:80EBBFB0       aWavecachelenD
 0002:80EBBFC4       aSpecchangeFini
 0002:80EBBFDC       aHeapOverview
 0002:80EBBFEC       aHpMain8x
 0002:80EBBFFC       aDac18x
 0002:80EBC00C       aDac28x
 0002:80EBC01C       aDac38x
 0002:80EBC02C       aHpSynd8x
 0002:80EBC03C       aChannel8x
 0002:80EBC04C       aDreg8x
 0002:80EBC05C       aTask18x
 0002:80EBC06C       aTask28x
 0002:80EBC07C       aRelt8x
 0002:80EBC08C       aDelay0l8x
 0002:80EBC09C       aDelay0r8x
 0002:80EBC0AC       aDelay1l8x
 0002:80EBC0BC       aDelay1r8x
 0002:80EBC0CC       aGr0Sub08x
 0002:80EBC0EC       aWarningEmemOve
 0002:80EBC10C       aInitHeapXX
 0002:80EBC120       aSingleAutosize
 0002:80EBC134       aSinglePtrX
 0002:80EBC144       aRequestSingleA
 0002:80EBC164       aRetryXXLenX
 0002:80EBC17C       aDmaingListDIsK
 0002:80EBC198       aTryKillD
 0002:80EBC1A8       aTryKillXX
 0002:80EBC1B8       aTryKillXXX
 0002:80EBC1CC       aRomBackXX
 0002:80EBC1E0       aErrorSwNull
 0002:80EBC1F0       aRequestSingleS
 0002:80EBC210       aTryKillD_0
 0002:80EBC220       aTryKillXX_0
 0002:80EBC230       aTryKillXXX_0
 0002:80EBC258       aCautionWaveCac
 0002:80EBC274       aSuperdma
 0002:80EBC280       aWavecacheMemor
 0002:80EBC29C       aGetX
 0002:80EBC2A4       aBankcountD
 0002:80EBC2B4       aBankLoadMissFo
 0002:80EBC2CC       aBankcountD_0
 0002:80EBC2DC       aFlushStart
 0002:80EBC2EC       aDD
 0002:80EBC2F8       aStartseqreqGro
 0002:80EBC318       aUseflagD
 0002:80EBC324       aBankcountD_1
 0002:80EBC334       aLoadErrorNoMem
 0002:80EBC350       a2x
 0002:80EBC358       aStartseqGroupD
 0002:80EBC384       aLinkingSequenc
 0002:80EBC3A0       aLoadctrlPtrXAn
 0002:80EBC3C4       aLoadBankTypeDI
 0002:80EBC3E0       aGetAuto
 0002:80EBC3EC       aGetSAutoX
 0002:80EBC3FC       aSeqDWriteIdOkD
 0002:80EBC414       aBanknumberD
 0002:80EBC424       aBankOffsetXDD
 0002:80EBC43C       aPepTouchX
 0002:80EBC44C       aVpercDX
 0002:80EBC45C       aPass
 0002:80EBC464       aVepTouchX
 0002:80EBC474       aWarningInstcou
 0002:80EBC494       aInstmapDXInstt
 0002:80EBC4B0       aFastcopy
 0002:80EBC4BC       aFastcopy_0
 0002:80EBC4C8       aNotSupported
 0002:80EBC4D8       aErrorDmaProhib
 0002:80EBC4FC       aWarningSizeNot
 0002:80EBC524       aLoadBankBgType
 0002:80EBC544       aGetAuto_0
 0002:80EBC550       aGetSAutoX_0
 0002:80EBC560       aClearWorkareaX
 0002:80EBC580       aAudioheapIsX
 0002:80EBC594       aHeapResetSynth
 0002:80EBC5B4       aMainhpBaseX
 0002:80EBC5C8       aMainhpCurrentX
 0002:80EBC5DC       aMainhpLengthX
 0002:80EBC5F0       aMainhpCountX
 0002:80EBC604       aDacXPointerX
 0002:80EBC61C       aHpPointX
 0002:80EBC62C       aMainhpBaseX_0
 0002:80EBC644       aMainhpCurrentX_0
 0002:80EBC65C       aMainhpLengthX_0
 0002:80EBC674       aMainhpCountX_0
 0002:80EBC68C       aHeapXXX
 0002:80EBC69C       aMainHeapInitia
 0002:80EBC6B4       aDWaveaDWavebDI
 0002:80EBC6E4       aInitCompleted
 0002:80EBC710       aSyndrv6d
 0002:80EBC724       aSeqdrv6d
 0002:80EBC738       aAudiodata6d
 0002:80EBC778       aQueX
 0002:80EBC784       aEntryDD
 0002:80EBC794       aBlockLpsHere
 0002:80EBC7A8       aBlockLpsEnd
 0002:80EBC7BC       aSlowcopy
 0002:80EBC7C8       aNotSupported_0
 0002:80EBC7D8       aSeqLoadEntryDX
 0002:80EBC7F4       aOverSeqmaxD
 0002:80EBC804       aReqSrcXDestXLe
 0002:80EBC834       aRemainSizeD
 0002:80EBC844       aBlockBgHere
 0002:80EBC858       aBlockBgEnd
 0002:80EBC86C       aRetcodeX
 0002:80EBC878       aOtherTypeNotWr
 0002:80EBC894       aBgloadErrorDma
 0002:80EBC8B0       aBgcopy
 0002:80EBC8B8       aNotSupported_1
 0002:80EBC8C8       aInsttopIsX
 0002:80EBC8D8       aErrorAlreadyWa
 0002:80EBC904       aTouchWarningLe
 0002:80EBC924       aMediaConvertD
 0002:80EBC938       aD_8
 0002:80EBC93C       aItSBusyNowD
 0002:80EBC954       aBgLoadBufferIs
 0002:80EBC970       aWarningLengthZ
 0002:80EBC98C       aWaveLoadD
 0002:80EBC99C       aTotalBgWaveLoa
 0002:80EBC9B4       aReceiveD
 0002:80EBC9C0       aErrorMagicIsBr
 0002:80EBC9F4       aRemainDmaD
 0002:80EBCA04       aNStartD
 0002:80EBCA10       aErrorMagicIsBr_0
 0002:80EBCA38       aErrorNoHandle
 0002:80EBCA4C       aSuccessX
 0002:80EBCA5C       aItSBusyNowD_0
 0002:80EBCA74       aBgLoadBufferIs_0
 0002:80EBCA90       aBaseXLenXMedia
 0002:80EBCAAC       aWaveLoadD_0
 0002:80EBCABC       aTotalBgWaveLoa_0
 0002:80EBCAE0       aDacLost1Frame
 0002:80EBCAF4       aAddressErrorX
 0002:80EBCB08       aDmaRequestQueu
 0002:80EBCB28       aDmaDLinesTimeo
 0002:80EBCB44       aWarningWavedma
 0002:80EBCB6C       aAudioNowMaxTas
 0002:80EBCB90       aAudioWarningAb
 0002:80EBCBC8       aPlaySeqD
 0002:80EBCBD8       aBgloadStartD
 0002:80EBCBEC       aInitFinQueueX
 0002:80EBCC04       aQueuaddX
 0002:80EBCC10       aMtqueueX
 0002:80EBCC1C       aFullqueueX
 0002:80EBCC2C       aValidcX
 0002:80EBCC38       aFirstX
 0002:80EBCC44       aCountX
 0002:80EBCC50       aMesgsX
 0002:80EBCC70       aInitFinQueue
 0002:80EBCC84       aQueuaddX_0
 0002:80EBCC90       aMtqueueX_0
 0002:80EBCC9C       aFullqueueX_0
 0002:80EBCCAC       aValidcX_0
 0002:80EBCCB8       aFirstX_0
 0002:80EBCCC4       aCountX_0
 0002:80EBCCD0       aMesgsX_0
 0002:80EBCCF0       aErrorOverflowY
 0002:80EBCD10       aAudiosendingDD
 0002:80EBCD2C       aAudiosendDDD
 0002:80EBCD48       aWarningMesgqIs
 0002:80EBCD74       aNextStartD
 0002:80EBCD88       aContinuePort
 0002:80EBCD98       aDD_0
 0002:80EBCDA4       aSyncFrameBreak
 0002:80EBCDD0       aSpecchgConjunc
 0002:80EBCDFC       aWarningQueueIs
 0002:80EBCE34       aWarningSpeccha
 0002:80EBCE68       aSameSpecchange
 0002:80EBCE88       aOverwriteSpecn
 0002:80EBCEA8       aCoherencySafet
 0002:80EBCEC4       aNormalSpecchan
 0002:80EBCEE0       aUndefinedPortC
 0002:80EBCF10       aAudioSetvolVol
 0002:80EBCF30       aAudioSetvolVol_0
 0002:80EBCF54       aAudioSetpitchP
 0002:80EBCF80       aDoubleErrorChX
 0002:80EBCFB0       aDoubleErrorNtX
 0002:80EBCFDC       aCautionSubIsSe
 0002:80EBD004       aCautionPauseEm
 0002:80EBD020       aErrorWaitTrack
 0002:80EBD03C       aAudioVoicemanN
 0002:80EBD060       aAudioVoicemanP
 0002:80EBD08C       aPtr2X
 0002:80EBD098       aAudioVoicemanP_0
 0002:80EBD0C4       aAudioVoicemanN_0
 0002:80EBD0E8       aAudioVoicemanP_1
 0002:80EBD114       aAudioVoicemanP_2
 0002:80EBD15C       aAudioVoicemanP_3
 0002:80EBD188       a4X
 0002:80EBD190       aAudioVoicemanN_1
 0002:80EBD1B4       aAudioVoicemanP_4
 0002:80EBD1E0       aAudioVoicemanP_5
 0002:80EBD228       aAudioVoicemanP_6
 0002:80EBD258       aAudioWarnNoPer
 0002:80EBD27C       a4X_0
 0002:80EBD284       aNoteoffComesDu
 0002:80EBD2B4       aSlowReleaseBat
 0002:80EBD2CC       aAudioWavememBa
 0002:80EBD2F0       aBasepitchFSwee
 0002:80EBD30C       aXDLodDD
 0002:80EBD324       aAudioCAllocDea
 0002:80EBD34C       aAllocErrorDimV
 0002:80EBD36C       aErrorSameListA
 0002:80EBD384       aAlreadyCut
 0002:80EBD394       aAudioCAllocLow
 0002:80EBD3B8       aIntteruptUsest
 0002:80EBD3D8       aIntteruptRelwa
 0002:80EBD3F8       aDropVoicePrioX
 0002:80EBD410       aInitChannelDX
 0002:80EBD430       aAudioEnvpOverf
 0002:80EBD4A0       aAudioTrackCall
 0002:80EBD4CC       aAudioTrackLoop
 0002:80EBD4F8       aAudioTrackWarn
 0002:80EBD520       aStopRelease
 0002:80EBD530       aErrorSameListA_0
 0002:80EBD548       aWaitTimeOut
 0002:80EBD558       aWarningNprgCan
 0002:80EBD57C       aAudioTrackNote
 0002:80EBD5A8       aErrorSubtrackN
 0002:80EBD5C4       aErrX
 0002:80EBD5CC       aErrX_0
 0002:80EBD5D4       aVoiceHereX
 0002:80EBD5E4       aNoteOverflowD
 0002:80EBD5F8       aTrsDDD
 0002:80EBD60C       aFFF
 0002:80EBD618       aDSamplesFFrame
 0002:80EBD634       aAudioNoteVeloc
 0002:80EBD654       aSubErrBankDNot
 0002:80EBD674       aSubErrBankDNot_0
 0002:80EBD694       aXX
 0002:80EBD6A0       aAudioTrackCtbl
 0002:80EBD6D0       aSetNoiseD
 0002:80EBD6E0       a2x_0
 0002:80EBD6E8       aErrSubXAddress
 0002:80EBD720       aErrorBadNoteDC
 0002:80EBD740       aVoiceloadError
 0002:80EBD764       aDisappearSeque
 0002:80EBD784       aSeqD
 0002:80EBD78C       aBankD
 0002:80EBD798       aIdDAndD
 0002:80EBD7A8       aMidiModeNotSup
 0002:80EBD7C4       aAudioTrackCtbl_0
 0002:80EBD7F4       aGroupUndefineU
 0002:80EBD81C       aSeqLoadStartDD
 0002:80EBD834       aGroupUndefined
 0002:80EBD850       aCallSubXGtpX
 0002:80EBD8D0       aHalfpipeSnareT
 0002:80EBD8F0       aSnareinD
 0002:80EBD8FC       aDTempoD
 0002:80EBD90C       aDTuneF
 0002:80EBD944       aAudioNowSceneI
 0002:80EBD95C       aAudioNowCourse
 0002:80EBD974       aShotZD
 0002:80EBD980       aShotRD
 0002:80EBD98C       aShotRD_0
 0002:80EBD998       aShotLD
 0002:80EBD9A4       aXD
 0002:80EBD9D8       aAudioNowSceneI_0
 0002:80EBD9FC       aEntryFadeintim
 0002:80EBDA14       aFadeintimeD
 0002:80EBDA24       aLoadVseqD
 0002:80EBDA34       aTuneF
 0002:80EBDCA0       aAudioPlayerSeI
 0002:80EBDCCC       aEntryPlayerDCh
 0002:80EBDCF0       aAudioSpin180
 0002:80EBDD04       aAudioSpin360
 0002:80EBDD18       aLeafFlag
 0002:80EBDD24       aStaggerReturn
 0002:80EBDD38       aAudioChargeSto
 0002:80EBDD4C       aCrashGroundSlo
 0002:80EBDD6C       aCrashSnowwall
 0002:80EBDD80       aCrashWoodwall
 0002:80EBDD94       aCrashStealwall
 0002:80EBDDA8       aCrashRockwall
 0002:80EBDDBC       aCrashTree
 0002:80EBDDCC       aCrashMan
 0002:80EBDDDC       aThisPlayerIsFo
 0002:80EBDE20       aExitPlayerD
 0002:80EBDE34       aAudioStaggerIs
 0002:80EBDE54       aThisIsSpecialC
 0002:80EBDE6C       aXCmflagIsDChrD
 0002:80EBDE88       aActionDF
 0002:80EBDE98       aWallA
 0002:80EBDEA4       aWallB
 0002:80EBDEB0       aTree
 0002:80EBDEB8       aMan
 0002:80EBDEC0       aGroundAnimD
 0002:80EBDED4       aDoNothingForGh
 0002:80EBDEEC       aDownRetioF
 0002:80EBDEFC       aUpRetioF
 0002:80EBDF0C       aSoundVoiceFlyh
 0002:80EBDFDC       aAudioSystemSeX
 0002:80EBDFF8       aSnareInsertSta
 0002:80EBE00C       aCountDownRemai
 0002:80EBE024       aAudioCheckpoin
 0002:80EBE040       aCourseDecidedD
 0002:80EBE054       aOptionDCharact
 0002:80EBE07C       aTrickHoldD
 0002:80EBE08C       aTrickSuccessDP
 0002:80EBE0A8       aSceneIsPlay
 0002:80EBE0B8       aOnemakeRetry
 0002:80EBE0C8       aHalfpipeRetryS
 0002:80EBE0E4       aOnemakeRetry2D
 0002:80EBE100       aCheerEntryD
 0002:80EBE110       aScenechangeD
 0002:80EBE120       aNowBrizD
 0002:80EBE130       aEntryBrizD
 0002:80EBE140       aVoiceBeginChar
 0002:80EBE160       aRequest2D
 0002:80EBE170       aRequest1D
 0002:80EBE180       aAudioSceneSetu
 0002:80EBE1A8       aBeforeIsTitle
 0002:80EBE1BC       aRemainD
 0002:80EBE1C8       aAudioHalfpipeg
 0002:80EBE1DC       aAudioSceneSetu_0
 0002:80EBE1F4       aSceneFinishFor
 0002:80EBE214       aAudioExtendMem
 0002:80EBE234       aAudioExtendMem_0
 0002:80EBE250       aVoice1DRndD
 0002:80EBE268       aVoice2D
 0002:80EBE274       aVoice3DBD
 0002:80EBE2A0       aSceneStop
 0002:80EBE2B4       aInitaudioRomAd
 0002:80EBE2D4       aInitaudioEnd
 0002:80EBF968       aMnode_0
 0002:80EBF970       aUnknown_0
 0002:80EBF97C       aCamera
 0002:80EBF984       aGlobalOutOfRan_17
 0002:80EBF99C       aFov
 0002:80EBFA40       aAssertionFaile
 0002:80EBFA70       aArse
 0002:80EBFA78       aWriteBadLength
 0002:80EBFA8C       aWriteNotAtEnd
 0002:80EBFAA0       aWriteVeLen
 0002:80EBFAB0       aReadNotAligned
 0002:80EBFAC8       aBadReadLenD
 0002:80EBFADC       aWriteNotAligne
 0002:80EBFAF8       aBadWriteLenD
 0002:80EBFB0C       aOutOfDmaSlots
 0002:80EBFB20       aWriteBadLength_0
 0002:80EBFB34       aWriteNotAtEnd_0
 0002:80EBFB48       aWriteVeLen_0
 0002:80EBFB58       aReadBadLength
 0002:80EBFB6C       aReadReadNotAtE
 0002:80EBFB84       aReadWriteNotAt
 0002:80EBFB9C       aReadVeLen
 0002:80EBFBAC       aStopped
 0002:80EBFBB8       aRunnable
 0002:80EBFBC4       aRunning
 0002:80EBFBD0       aWaiting
 0002:80EBFBDC       aUnknown_1
 0002:80EBFBE4       aThreads
 0002:80EBFBF0       aSDSS0xXPc0xX
 0002:80EBFC28       aFaultS0xX0xXIn
 0002:80EBFC50       aHostio
 0002:80EBFC58       aPureVirtualCal
 0002:80EBFC6C       aRunapp
 0002:80EBFC74       aGfxStart
 0002:80EBFC9C       aUpdate
 0002:80EBFCA8       aAppDisplay
 0002:80EBFCB4       aDisplay
 0002:80EBFCC0       aDisplay_0
 0002:80EBFCCC       aGfxEnd
 0002:80EBFCD4       aUpdate_0
 0002:80EBFCE0       aCpu
 0002:80EBFCE4       aSndGwork
 0002:80EBFCF0       aSndcpu
 0002:80EBFCF8       aSndcpu_0
 0002:80EBFD00       aUsoloadErrorLo_0
 0002:80EBFD24       aCantUnloadSD
 0002:80EBFD3C       aTempbufferBusy
 0002:80EBFD4C       aTempheapAllocF
 0002:80EBFD68       aOpenfileErrorS
 0002:80EBFD80       aRemoteOpenfile
 0002:80EBFD9C       aSramReadXDFrom
 0002:80EBFDB8       aBadSramDmaAlig
 0002:80EBFDCC       aReadfileErrorD
 0002:80EBFDE0       aReadAsyncLocal
 0002:80EBFDF8       aCantWriteToLoc
 0002:80EBFE0C       aSramWriteXDToX
 0002:80EBFE28       aBadSramDmaAlig_0
 0002:80EBFE3C       aFileinfoSD
 0002:80EBFE50       aFilesizeOnLoca
 0002:80EBFEA0       aDupParmS
 0002:80EBFEB0       aParmSIgnored
 0002:80EC03D4       aDefmnode
 0002:80EC03E0       aDefnode
 0002:80EC03E8       aLoad
 0002:80EC03F0       aBin
 0002:80EC03F8       aNodeLoadS
 0002:80EC0418       aBin_0
 0002:80EC0440       aDodisplay
 0002:80EC044C       aSave
 0002:80EC0454       aLoad_0
 0002:80EC045C       aGlobalOutOfRan_18
 0002:80EC0474       aGlobalOutOfRan_19
 0002:80EC048C       aUnknownNodeCmd
 0002:80EC04A8       aContentsOfS
 0002:80EC04BC       aS
 0002:80EC04C0       aMnode_1
 0002:80EC04C8       aMtxmode
 0002:80EC04D0       aFlags
 0002:80EC04E4       aSnode
 0002:80EC04EC       aSnode_0
 0002:80EC04F4       aScale
 0002:80EC04FC       aRotx
 0002:80EC0504       aRoty
 0002:80EC050C       aRotz
 0002:80EC0514       aHeight
 0002:80EC051C       aRadius
 0002:80EC0524       aMtx
 0002:80EC0608       aCollshape
 0002:80EC0614       aCollshapeColls
 0002:80EC062C       aColshape
 0002:80EC0638       aUnknownCollCmd
 0002:80EC064C       aPolyshapeColls
 0002:80EC0660       aCollshape_0
 0002:80EC066C       aNullcollshape
 0002:80EC067C       aNoPgridData
 0002:80EC068C       aNoPgridData_0
 0002:80EC069C       aCollobjmgr
 0002:80EC0AA8       aNode_44
 0002:80EC0AB0       aLoadingItemtyp
 0002:80EC0ACC       aNode_45
 0002:80EC0AD4       aMnode_2
 0002:80EC0ADC       aItemmgrLoad
 0002:80EC0AEC       aItemtypeNotFou
 0002:80EC0B08       aRemoveitems
 0002:80EC0B14       aChangetype
 0002:80EC0B20       aItems
 0002:80EC0B28       aUnknownItemtyp
 0002:80EC0B40       aFrom
 0002:80EC0B48       aTo
 0002:80EC0B4C       aChangedSToS
 0002:80EC0B88       aHostioInitErro
 0002:80EC0BA0       aHostioNoHilite
 0002:80EC0BBC       aHostioUnknownC
 0002:80EC0C78       aDefqnode
 0002:80EC0C84       aQnode_0
 0002:80EC0C98       aMtxmode_0
 0002:80EC0D6C       aNewCantAllocat
 0002:80EC0D88       aXNewDDD2fk
 0002:80EC0DA8       aDeleteX
 0002:80EC0DB8       aNode_46
 0002:80EC0DC0       aApp
 0002:80EC0DC4       aSyslib
 0002:80EC0DCC       aGfxlib
 0002:80EC0DD4       aAppReset
 0002:80EC0DE0       aSoftresetD
 0002:80EC0DF0       aSecurityCheckF
 0002:80EC0E08       aConReset1
 0002:80EC0E14       aConReset2
 0002:80EC0E20       aGfxlibparms
 0002:80EC0E2C       aAppInitinstanc
 0002:80EC0E48       aApp_0
 0002:80EC0E4C       aVersion
 0002:80EC0E58       aMemory
 0002:80EC0E60       aPause
 0002:80EC0E68       aFreeze
 0002:80EC0E70       aSyslinksDD
 0002:80EC0E80       aApplinksDD
 0002:80EC0E90       aMemoryDump
 0002:80EC0E9C       aDisplay_1
 0002:80EC0EA4       aAppUpdate
 0002:80EC0EB0       aAppDeleteS
 0002:80EC0EC0       aAppDisplay_0
 0002:80EC0ED0       aRb_2
 0002:80EC0ED4       aS_0
 0002:80EC0ED8       aS_1
 0002:80EC0EDC       aDkDkFreeLarges
 0002:80EC0EF4       aDkDkUsedSize
 0002:80EC0F08       a0x
 0002:80EC0F0C       aFrom_0
 0002:80EC0F14       a4
 0002:80EC14A4       aError
 0002:80EC14AC       aSetDD
 0002:80EC14BC       a30f30f30f30f
 0002:80EC14D8       aXD_0
 0002:80EC14E0       aYD
 0002:80EC14E8       aHold
 0002:80EC14F0       aTextureNotAlig
 0002:80EC1504       aLight
 0002:80EC1540       aCvgtest
 0002:80EC1548       aAutoLights
 0002:80EC1554       aFifolen
 0002:80EC155C       aDumpScreen
 0002:80EC1568       aDumpZbuffer
 0002:80EC1578       aDumpError
 0002:80EC1584       aShowDlUsage
 0002:80EC1594       aRcpstatusSSVtD
 0002:80EC15C4       aGfxstatusS
 0002:80EC15D4       aGfx1
 0002:80EC15DC       aScreenwindow
 0002:80EC15EC       aTaskdl1
 0002:80EC15F4       aTaskdl2
 0002:80EC15FC       aTestdl
 0002:80EC1604       aMainstaticdl
 0002:80EC1614       aMainstatic
 0002:80EC1620       aOneframe
 0002:80EC162C       aOneframe_0
 0002:80EC1638       aOneframe_1
 0002:80EC1644       aWarningZeroVFr
 0002:80EC1660       a1gframe
 0002:80EC1668       aVideoModeNotSu
 0002:80EC1684       aNumGdlMaxDdm
 0002:80EC1698       aGfxlibCpp
 0002:80EC16A4       aStart
 0002:80EC16AC       aMhupd
 0002:80EC16CC       aMorphupd
 0002:80EC16D8       aAdrawupd
 0002:80EC16E4       aAdrawupd_0
 0002:80EC16F0       a1gframe_0
 0002:80EC16F8       a1gframe_1
 0002:80EC1700       aSwap
 0002:80EC1708       aCpu_0
 0002:80EC170C       aDoneswap
 0002:80EC1718       a1gframe_2
 0002:80EC1720       aTooManyWindows
 0002:80EC1734       aFaceOverflow
 0002:80EC1778       aGenpoly
 0002:80EC1780       aPgridNull
 0002:80EC1790       aGfxlibCpp_0
 0002:80EC179C       aSD_0
 0002:80EC17A4       aEndGenpoly
 0002:80EC17B4       aFinInitPoly
 0002:80EC17C4       aPolyshape
 0002:80EC17D0       aNumpnts
 0002:80EC17D8       aNumpolys
 0002:80EC17E4       aAmbientgamma
 0002:80EC17F4       aHilitematerial
 0002:80EC1804       aNoPnormsForFla
 0002:80EC1820       aDDD
 0002:80EC182C       aTooManyObjects_0
 0002:80EC1848       aMpGenupdatelis
 0002:80EC185C       aMorphpolyNothi
 0002:80EC187C       aMorphpolyNothi_0
 0002:80EC189C       aNewColours
 0002:80EC18AC       aDvtxFirstvtxNu
 0002:80EC18D0       aGfxlibCpp_1
 0002:80EC18DC       aCopy
 0002:80EC18E4       aShadow
 0002:80EC18EC       aSprite
 0002:80EC18F4       aSsStartdl
 0002:80EC1900       aSprblock
 0002:80EC190C       aSsEnddl
 0002:80EC1918       aFramebuffers
 0002:80EC1928       aNoScreenwindow
 0002:80EC1944       aDls
 0002:80EC1948       aStartdraw
 0002:80EC1954       aSetupdyn
 0002:80EC1960       aBgdyn
 0002:80EC1978       aFoundNodeS
 0002:80EC1988       aWindow
 0002:80EC1990       aShowDlUsage_0
 0002:80EC19A0       aVfp1
 0002:80EC19C8       aFastq
 0002:80EC19EC       aEnteringRcpmgr
 0002:80EC1A0C       aNone_0
 0002:80EC1A14       aRcpmgrthreadSt
 0002:80EC1A30       aSndrsp
 0002:80EC1A38       aResume
 0002:80EC1A40       aGfxResume
 0002:80EC1A4C       aSnd
 0002:80EC1A50       aSndrsp_0
 0002:80EC1A58       aSnd_0
 0002:80EC1A5C       aRcp_0
 0002:80EC1A60       aSnd_1
 0002:80EC1A64       aSndrsp_1
 0002:80EC1A6C       aSnd_2
 0002:80EC1A70       aSndwork
 0002:80EC1A78       aSndv
 0002:80EC1A80       aSndv_0
 0002:80EC1A88       aRetrace
 0002:80EC1A90       aFlushWhenActiv
 0002:80EC1AA4       aFlushWhenTasks
 0002:80EC1AC0       aRcp_1
 0002:80EC1AC4       aGotUnkownMessa
 0002:80EC1AE0       aRcptaskAlready
 0002:80EC1AF8       aGfx
 0002:80EC1AFC       aGfx_0
 0002:80EC1B00       aRsp
 0002:80EC1B04       aRcpmgrUnsuppor
 0002:80EC1B20       aTooManyRcpTask
 0002:80EC1C98       aDispmgr
 0002:80EC1CA0       aDisplaymgrAddT
 0002:80EC1CC4       aTooManyObjects_1
 0002:80EC1DE0       aWindowCanTUpda
 0002:80EC1DF4       aNoCameraInPers
 0002:80EC25FC       aTooManyPointsT
 0002:80EC261C       aTooManyTris
 0002:80EC262C       aMissingTxpnts
 0002:80EC263C       aTooManyPnts
 0002:80EC264C       aDeflight
 0002:80EC2658       aLighttarget_1
 0002:80EC2664       aShape
 0002:80EC266C       aColour
 0002:80EC2674       aAlpha
 0002:80EC267C       aSFFFF
 0002:80EC2690       aSDDDD
 0002:80EC26A4       aSX
 0002:80EC26AC       aNoName
 0002:80EC26B8       aBasemat
 0002:80EC26C0       aTexture
 0002:80EC26C8       aMincut
 0002:80EC26D0       aMaxcut
 0002:80EC26D8       aTex
 0002:80EC26DC       aRgb
 0002:80EC26E0       aMatDSS
 0002:80EC26F4       aMatDSS_0
 0002:80EC2704       aNoGlbmat
 0002:80EC2710       aUnknownGdlMcCm
 0002:80EC2728       aTooManyMateria
 0002:80EC273C       aTooManyObjects_2
 0002:80EC2758       aNoParentMat
 0002:80EC2768       aUnknownMatcmdC
 0002:80EC2780       aUnknownMatDSiz
 0002:80EC2798       aInvalidShapeCm
 0002:80EC27B0       aNode_47
 0002:80EC27B8       aZoneshape
 0002:80EC27C4       aMats
 0002:80EC27CC       aParsedMaterial
 0002:80EC27E4       aShapeScaleDont
 0002:80EC2800       aGetvtxnormCall
 0002:80EC2814       aPolyavgcolNoCo
 0002:80EC282C       aSlowNormGen
 0002:80EC283C       aBasepolyshapeG
 0002:80EC286C       aCmod
 0002:80EC2874       aParms_4
 0002:80EC28A4       aGlobalOutOfRan_20
 0002:80EC28BC       aLighttarget_2
 0002:80EC28C8       aLightmask
 0002:80EC28D4       aFade
 0002:80EC28DC       aNoShadowlight
 0002:80EC2934       aProcnodelistNo
 0002:80EC2950       aProcnodelistNo_0
 0002:80EC2970       aProcnodelistNo_1
 0002:80EC2988       aProcnodelistNo_2
 0002:80EC29A0       aNlS
 0002:80EC29A8       aProcnodelist
 0002:80EC29B8       aInvalidNodelis
 0002:80EC2DA8       aContentsOfS0x0
 0002:80EC2DC8       a04x
 0002:80EC2DD0       a02x
 0002:80EC2DDC       aFaultInThreadD
 0002:80EC2DF4       aEpc0x08x
 0002:80EC2E04       aCause
 0002:80EC2E10       aBadvaddr0x08x
 0002:80EC2E24       aAt0x016llxV00x
 0002:80EC2E4C       aA00x016llxA10x
 0002:80EC2E74       aA30x016llxT00x
 0002:80EC2E9C       aT20x016llxT30x
 0002:80EC2EC4       aT50x016llxT60x
 0002:80EC2EEC       aS00x016llxS10x
 0002:80EC2F14       aS30x016llxS40x
 0002:80EC2F3C       aS60x016llxS70x
 0002:80EC2F64       aT90x016llxGp0x
 0002:80EC2F8C       aS80x016llxRa0x
 0002:80EC2FA8       aFpcsr
 0002:80EC2FB0       aD015eD215e
 0002:80EC2FC8       aD415eD615e
 0002:80EC2FE0       aD815eD1015e
 0002:80EC2FF8       aD1215eD1415e
 0002:80EC3010       aD1615eD1815e
 0002:80EC3028       aD2015eD2215e
 0002:80EC3040       aD2415eD2615e
 0002:80EC3058       aD2815eD3015e
 0002:80EC3070       aS0x08x
 0002:80EC30C0       aUnsupportedRmM
 0002:80EC30DC       aUnsupportedRm2
 0002:80EC30F8       aSomethingInSDi
 0002:80EC3124       aSGfxDDVtxDDLig
 0002:80EC3170       aUnsupportedCcM
 0002:80EC318C       aUnsupportedCcM_0
 0002:80EC31A8       aUnkownTile
 0002:80EC31B4       aBadTexfmtNumD
 0002:80EC31E8       aMemoryXXD
 0002:80EC31FC       aBadMemFreeDX
 0002:80EC3210       aBadMemAllocDX
 0002:80EC3228       a42fk
 0002:80EC3234       aFreeList
 0002:80EC3240       aX42fkDBytes
 0002:80EC325C       aLevelD42fkD
 0002:80EC3274       aMemheadersFree
 0002:80EC32EC       aFFF_0
 0002:80EC3318       aNonSingularMat
 0002:80EC333C       aAbsrotMatrix4B
 0002:80EC335C       aMinXFMaxXF
 0002:80EC3378       aMinYFMaxYF
 0002:80EC3394       aMinZFMaxZF
 0002:80EC3430       aListOverflow
 0002:80EC3440       aMemtrackerMemt
 0002:80EC3458       aNoMemtrackermg
 0002:80EC346C       aS51fk
 0002:80EC347C       aMemtrackerNotF
 0002:80EC3494       aNoMemtrackerRu
 0002:80EC34AC       aMemtrackerSNot
 0002:80EC34C8       aS63fk
 0002:80EC34D8       aMemtrackermgr
 0002:80EC34E8       aTotal
 0002:80EC34F0       aBootup
 0002:80EC3578       aConsolemgr
 0002:80EC35DC       a0123456789abcd
 0002:80EC36A4       aYouReInTooMany
 0002:80EC36C0       aS_2
 0002:80EC36C8       aImoutImoutCall
 0002:80EC36F0       aSVD
 0002:80EC36FC       aSystemConsole
 0002:80EC370C       a08x
 0002:80EC3714       a02x_0
 0002:80EC3828       aDD_1
 0002:80EC3830       aNullAnimatormg
 0002:80EC384C       aNumkeysD
 0002:80EC3858       aNumnodesD
 0002:80EC3868       aFrameDataD
 0002:80EC3878       aNumframesD
 0002:80EC3888       aUnknownAnimCmd
 0002:80EC389C       aAmgrBadNumNode
 0002:80EC38B4       aOutOfAnimdataS
 0002:80EC38CC       aAnimdatamgr
 0002:80EC38D8       aMissingAnimgro
 0002:80EC38F0       aMissingAnimDD
 0002:80EC3904       aEmptyAnimDD
 0002:80EC3918       aAnim
 0002:80EC3920       aCAnimcmdTable
 0002:80EC3934       aUsrPeopleGiles
 0002:80EC3968       aNode_48
 0002:80EC3970       aBadkeyframeDS
 0002:80EC3984       aBadkeytimeDS
 0002:80EC3998       aStartanim
 0002:80EC3B78       aQnode_1
 0002:80EC3B80       aQnode_2
 0002:80EC3B88       aFriction
 0002:80EC3B94       aFriction_0
 0002:80EC3BA0       aFrictionLimit
 0002:80EC3BB0       aDnodeParms
 0002:80EC3BC0       aImp
 0002:80EC3BC4       aSpd
 0002:80EC3BC8       aSpl
 0002:80EC3BCC       aSpw
 0002:80EC3BD0       aGvt
 0002:80EC3BD4       aSuc
 0002:80EC3BD8       aVsc
 0002:80EC3BDC       aUsc
 0002:80EC3BE0       aTsc
 0002:80EC3BE4       aCog
 0002:80EC3BE8       aUnc
 0002:80EC3BEC       aDsc
 0002:80EC3BF0       aCsc
 0002:80EC3BF4       aRad
 0002:80EC3BF8       aCts
 0002:80EC3BFC       aDnode
 0002:80EC3C04       aDynamics
 0002:80EC3C14       aBadIsstreamBuf
 0002:80EC3C2C       aBadIsstreamBuf_0
 0002:80EC3C44       aBadIsstreamBuf_1
 0002:80EC3C5C       aGameS
 0002:80EC3C88       aUnexpectedObjp
 0002:80EC3CA0       aStaticarrayOve
 0002:80EC3D60       aControllerDPak
 0002:80EC3D74       aUnknown_2
 0002:80EC3D7C       aMotor
 0002:80EC3DC8       aCtlDPauseD
 0002:80EC3DDC       aCtlDStartRecor
 0002:80EC3DF4       aCtlDStartPlay
 0002:80EC3E51       aYyyyyyyyyyyyyy
 0002:80EC41B1       aYyyyyyyyyyyyyy_0
 0002:80ECC230       aStrdupOutOfMem
 0002:80ECCBA8       aEmpty
 0002:80ECCBB0       aBinfileGroupOu
 0002:80ECCBD4       aBinfileFileOut
 0002:80ECCBF4       aBinfileFileEmp
 0002:80ECCC10       aImagefilemgr
 0002:80ECCC20       aBadImgCmdAtX
 0002:80ECDCE4       aNumMaxSkinMgrs
 0002:80ECDCF8       aUsrPeopleGiles_0
 0002:80ECDD28       aBadSkinWeights
 0002:80ECDD40       aNoSkinmgrForSk
 0002:80ECDD58       aSkinshape
 0002:80ECDD64       aSkinshape_0
 0002:80ECDD70       aNoSkinmgr
 0002:80ECDD7C       aSkinanim
 0002:80ECDD88       aSkinanimator
 0002:80ECDD98       aSkinmgr
 0002:80ECDDA0       aSkinmgrAlready
 0002:80ECDDBC       aSkinmgrUpdateN
 0002:80ECDDE0       aSkinmgrResetNo
 0002:80ECFC74       a00000000000000
 0002:80ECFE24       a0123456789abcd_0
 0002:80ED03D8       loc_80ED03D8
 0002:80ED08CC       locret_80ED08CC
 0002:80ED0950       locret_80ED0950
 0002:80ED0958       locret_80ED0958
 0002:80ED0960       locret_80ED0960
 0002:80ED0968       locret_80ED0968
 0002:80ED0970       locret_80ED0970
 0002:80ED0978       locret_80ED0978
 0002:80ED0990       locret_80ED0990
 0002:80ED09B4       locret_80ED09B4
 0002:80ED1E4C       loc_80ED1E4C
 0002:80ED1E60       loc_80ED1E60
 0002:80ED1E78       locret_80ED1E78
 0002:80ED1E98       loc_80ED1E98
 0002:80ED1EAC       loc_80ED1EAC
 0002:80ED1EC4       locret_80ED1EC4
 0002:80ED2454       loc_80ED2454
 0002:80ED24A4       loc_80ED24A4
 0002:80ED24A8       loc_80ED24A8
 0002:80ED25CC       loc_80ED25CC
 0002:80ED2624       locret_80ED2624
 0002:80ED264C       locret_80ED264C
 0002:80ED713C       loc_80ED713C
 0002:80ED718C       locret_80ED718C
 0002:80ED7548       loc_80ED7548
 0002:80ED7A60       sub_80ED7A60
 0002:80ED7A88       loc_80ED7A88
 0002:80ED7AA8       loc_80ED7AA8
 0002:80ED7AC8       loc_80ED7AC8
 0002:80EDB5BC       loc_80EDB5BC
 0002:80EDBD70       loc_80EDBD70
 0002:80EDBD80       loc_80EDBD80
 0002:80EDBD84       loc_80EDBD84
 0002:80EDC75C       loc_80EDC75C
 0002:80EDC768       loc_80EDC768
 0002:80EDC7E0       loc_80EDC7E0
 0002:80EDC868       loc_80EDC868
 0002:80EDC888       loc_80EDC888
 0002:80EDD874       loc_80EDD874
 0002:80EDD894       loc_80EDD894
 0002:80EDDC20       loc_80EDDC20
 0002:80EDE5AC       sub_80EDE5AC
 0002:80EDE5F4       loc_80EDE5F4
 0002:80EDE5F8       loc_80EDE5F8
 0002:80EDF098       loc_80EDF098
 0002:80EDF0E4       loc_80EDF0E4
 0002:80EDF148       loc_80EDF148
 0002:80EDF1DC       loc_80EDF1DC
 0002:80EDF22C       loc_80EDF22C
 0002:80EDF260       loc_80EDF260
 0002:80EDF290       loc_80EDF290
 0002:80EDF2A0       sub_80EDF2A0
 0002:80EDF2D0       loc_80EDF2D0
 0002:80EDF2E4       loc_80EDF2E4
 0002:80EDF310       loc_80EDF310
 0002:80EDF324       loc_80EDF324
 0002:80EDF32C       loc_80EDF32C
 0002:80EDF338       sub_80EDF338
 0002:80EDF368       loc_80EDF368
 0002:80EDF37C       loc_80EDF37C
 0002:80EDF3A8       loc_80EDF3A8
 0002:80EDF3BC       loc_80EDF3BC
 0002:80EDF3C4       loc_80EDF3C4
 0002:80EDF3D0       sub_80EDF3D0
 0002:80EDF400       loc_80EDF400
 0002:80EDF414       loc_80EDF414
 0002:80EDF41C       loc_80EDF41C
 0002:80EDF428       sub_80EDF428
 0002:80EDF458       loc_80EDF458
 0002:80EDF46C       loc_80EDF46C
 0002:80EDF474       loc_80EDF474
 0002:80EDF480       sub_80EDF480
 0002:80EDF4B0       loc_80EDF4B0
 0002:80EDF4C4       loc_80EDF4C4
 0002:80EDF4CC       loc_80EDF4CC
 0002:80EDF4D8       sub_80EDF4D8
 0002:80EDF508       loc_80EDF508
 0002:80EDF51C       loc_80EDF51C
 0002:80EDF524       loc_80EDF524
 0002:80EDF5BC       loc_80EDF5BC
 0002:80EDF5C4       loc_80EDF5C4
 0002:80EDF628       loc_80EDF628
 0002:80EDF658       locret_80EDF658
 0002:80EDF66C       locret_80EDF66C
 0002:80EDF680       locret_80EDF680
 0002:80EDF79C       loc_80EDF79C
 0002:80EDF844       loc_80EDF844
 0002:80EDF918       loc_80EDF918
 0002:80EDF92C       loc_80EDF92C
 0002:80EDF934       loc_80EDF934
 0002:80EDF9FC       loc_80EDF9FC
 0002:80EDFA10       loc_80EDFA10
 0002:80EDFA18       loc_80EDFA18
 0002:80EDFA38       sub_80EDFA38
 0002:80EDFA6C       loc_80EDFA6C
 0002:80EDFA80       loc_80EDFA80
 0002:80EDFA88       loc_80EDFA88
 0002:80EDFBA0       loc_80EDFBA0
 0002:80EDFCF4       loc_80EDFCF4
 0002:80EDFD0C       sub_80EDFD0C
 0002:80EDFD40       loc_80EDFD40
 0002:80EDFF44       loc_80EDFF44
 0002:80EDFFC4       loc_80EDFFC4
 0002:80EE00A4       loc_80EE00A4
 0002:80EE00C4       locret_80EE00C4
 0002:80EE0100       loc_80EE0100
 0002:80EE0154       nullsub_14
 0002:80EE0174       nullsub_15
 0002:80EE0188       locret_80EE0188
 0002:80EE01B0       nullsub_16
 0002:80EE0314       loc_80EE0314
 0002:80EE0344       loc_80EE0344
 0002:80EE0370       loc_80EE0370
 0002:80EE0390       loc_80EE0390
 0002:80EE0398       loc_80EE0398
 0002:80EE08EC       loc_80EE08EC
 0002:80EE08F4       loc_80EE08F4
 0002:80EE0914       nullsub_17
 0002:80EE091C       sub_80EE091C
 0002:80EE0968       loc_80EE0968
 0002:80EE0984       loc_80EE0984
 0002:80EE09CC       loc_80EE09CC
 0002:80EE0AE4       loc_80EE0AE4
 0002:80EE0E30       loc_80EE0E30
 0002:80EE1514       loc_80EE1514
 0002:80EE1654       loc_80EE1654
 0002:80EE1740       loc_80EE1740
 0002:80EE17B8       loc_80EE17B8
 0002:80EE1890       loc_80EE1890
 0002:80EE1910       loc_80EE1910
 0002:80EE19B8       loc_80EE19B8
 0002:80EE1A4C       loc_80EE1A4C
 0002:80EE1ACC       loc_80EE1ACC
 0002:80EE1ADC       sub_80EE1ADC
 0002:80EE1B04       loc_80EE1B04
 0002:80EE1B10       sub_80EE1B10
 0002:80EE1B38       loc_80EE1B38
 0002:80EE1B94       loc_80EE1B94
 0002:80EE1B9C       loc_80EE1B9C
 0002:80EE1BC8       loc_80EE1BC8
 0002:80EE1BDC       nullsub_18
 0002:80EE1C0C       nullsub_19
 0002:80EE1C14       loc_80EE1C14
 0002:80EE1C20       nullsub_20
 0002:80EE1C50       nullsub_21
 0002:80EE1C58       loc_80EE1C58
 0002:80EE1C64       nullsub_22
 0002:80EE1C6C       sub_80EE1C6C
 0002:80EE1C9C       loc_80EE1C9C
 0002:80EE1CD0       loc_80EE1CD0
 0002:80EE1CEC       loc_80EE1CEC
 0002:80EE1CF4       loc_80EE1CF4
 0002:80EE1D28       loc_80EE1D28
 0002:80EE1D34       loc_80EE1D34
 0002:80EE1D40       sub_80EE1D40
 0002:80EE1D70       loc_80EE1D70
 0002:80EE1DA4       loc_80EE1DA4
 0002:80EE1DC0       loc_80EE1DC0
 0002:80EE1DC8       loc_80EE1DC8
 0002:80EE1DFC       loc_80EE1DFC
 0002:80EE1E08       loc_80EE1E08
 0002:80EE1E14       sub_80EE1E14
 0002:80EE1E44       loc_80EE1E44
 0002:80EE1E78       loc_80EE1E78
 0002:80EE1E94       loc_80EE1E94
 0002:80EE1E9C       loc_80EE1E9C
 0002:80EE1ED0       loc_80EE1ED0
 0002:80EE1EDC       loc_80EE1EDC
 0002:80EE1EF4       nullsub_23
 0002:80EE1F0C       nullsub_24
 0002:80EE1F6C       loc_80EE1F6C
 0002:80EE1FAC       loc_80EE1FAC
 0002:80EE1FE4       loc_80EE1FE4
 0002:80EE1FF4       sub_80EE1FF4
 0002:80EE2034       loc_80EE2034
 0002:80EE20A4       loc_80EE20A4
 0002:80EE211C       loc_80EE211C
 0002:80EE2240       loc_80EE2240
 0002:80EE2248       loc_80EE2248
 0002:80EE22B0       loc_80EE22B0
 0002:80EE231C       loc_80EE231C
 0002:80EE2384       loc_80EE2384
 0002:80EE23F0       loc_80EE23F0
 0002:80EE2458       loc_80EE2458
 0002:80EE24C4       loc_80EE24C4
 0002:80EE2544       loc_80EE2544
 0002:80EE25EC       loc_80EE25EC
 0002:80EE261C       loc_80EE261C
 0002:80EE2638       sub_80EE2638
 0002:80EE2640       loc_80EE2640
 0002:80EE2678       loc_80EE2678
 0002:80EE2704       loc_80EE2704
 0002:80EE27FC       loc_80EE27FC
 0002:80EE2920       loc_80EE2920
 0002:80EE29D8       loc_80EE29D8
 0002:80EE2A54       loc_80EE2A54
 0002:80EE2A74       nullsub_25
 0002:80EE2AC0       loc_80EE2AC0
 0002:80EE2BC0       loc_80EE2BC0
 0002:80EE2C00       loc_80EE2C00
 0002:80EE2C1C       locret_80EE2C1C
 0002:80EE2C54       loc_80EE2C54
 0002:80EE2FA0       loc_80EE2FA0
 0002:80EE2FC8       loc_80EE2FC8
 0002:80EE2FCC       loc_80EE2FCC
 0002:80EE2FE8       loc_80EE2FE8
 0002:80EE2FFC       loc_80EE2FFC
 0002:80EE3010       loc_80EE3010
 0002:80EE302C       loc_80EE302C
 0002:80EE303C       loc_80EE303C
 0002:80EE3054       loc_80EE3054
 0002:80EE3064       loc_80EE3064
 0002:80EE307C       loc_80EE307C
 0002:80EE3090       loc_80EE3090
 0002:80EE30AC       loc_80EE30AC
 0002:80EE3100       loc_80EE3100
 0002:80EE3114       loc_80EE3114
 0002:80EE3120       loc_80EE3120
 0002:80EE3188       loc_80EE3188
 0002:80EE3194       loc_80EE3194
 0002:80EE31A0       loc_80EE31A0
 0002:80EE31E8       loc_80EE31E8
 0002:80EE3208       loc_80EE3208
 0002:80EE3388       loc_80EE3388
 0002:80EE3814       locret_80EE3814
 0002:80EE39E0       loc_80EE39E0
 0002:80EE3A88       loc_80EE3A88
 0002:80EE3AC4       loc_80EE3AC4
 0002:80EE43A4       loc_80EE43A4
 0002:80EE43F0       loc_80EE43F0
 0002:80EE43FC       locret_80EE43FC
 0002:80EE6A80       sub_80EE6A80
 0002:80EE6CE0       loc_80EE6CE0
 0002:80EE7908       sub_80EE7908
 0002:80EE795C       loc_80EE795C
 0002:80EE79F0       loc_80EE79F0
 0002:80EE7A0C       loc_80EE7A0C
 0002:80EE7A40       loc_80EE7A40
 0002:80EE7A44       loc_80EE7A44
 0002:80EE7A88       loc_80EE7A88
 0002:80EE7AF8       loc_80EE7AF8
 0002:80EE7AFC       loc_80EE7AFC
 0002:80EE7B6C       loc_80EE7B6C
 0002:80EE7BB0       loc_80EE7BB0
 0002:80EE7BF8       loc_80EE7BF8
 0002:80EE7CF4       loc_80EE7CF4
 0002:80EE7CF8       loc_80EE7CF8
 0002:80EE7D14       loc_80EE7D14
 0002:80EE7D58       loc_80EE7D58
 0002:80EE7D74       loc_80EE7D74
 0002:80EE7D8C       loc_80EE7D8C
 0002:80EE7DA4       loc_80EE7DA4
 0002:80EE8484       loc_80EE8484
 0002:80EE84B4       loc_80EE84B4
 0002:80EE84C8       locret_80EE84C8
 0002:80EE84F0       loc_80EE84F0
 0002:80EE8508       loc_80EE8508
 0002:80EE851C       loc_80EE851C
 0002:80EE852C       locret_80EE852C
 0002:80EECB40       sub_80EECB40
 0002:80EECBB4       loc_80EECBB4
 0002:80EECBEC       locret_80EECBEC
 0002:80EECBF4       sub_80EECBF4
 0002:80EECC3C       loc_80EECC3C
 0002:80EECCA4       loc_80EECCA4
 0002:80EECCC0       loc_80EECCC0
 0002:80EECE58       loc_80EECE58
 0002:80EECEBC       loc_80EECEBC
 0002:80EECF08       loc_80EECF08
 0002:80EECF9C       loc_80EECF9C
 0002:80EED100       loc_80EED100
 0002:80EED268       loc_80EED268
 0002:80EED30C       loc_80EED30C
 0002:80EED4B8       loc_80EED4B8
 0002:80EED5BC       loc_80EED5BC
 0002:80EED6C0       loc_80EED6C0
 0002:80EED7B0       loc_80EED7B0
 0002:80EED898       loc_80EED898
 0002:80EED958       loc_80EED958
 0002:80EED9A4       loc_80EED9A4
 0002:80EED9E4       loc_80EED9E4
 0002:80EEDA24       loc_80EEDA24
 0002:80EEDA64       loc_80EEDA64
 0002:80EEDB18       loc_80EEDB18
 0002:80EEDB2C       loc_80EEDB2C
 0002:80EEDCA8       loc_80EEDCA8
 0002:80EEDCBC       loc_80EEDCBC
 0002:80EEDCD8       loc_80EEDCD8
 0002:80EEDD20       loc_80EEDD20
 0002:80EEDD60       loc_80EEDD60
 0002:80EEDD74       loc_80EEDD74
 0002:80EEDD90       loc_80EEDD90
 0002:80EEDDD8       loc_80EEDDD8
 0002:80EEDDF8       loc_80EEDDF8
 0002:80EEDE14       locret_80EEDE14
 0002:80EEDE40       locret_80EEDE40
 0002:80EEDE48       locret_80EEDE48
 0002:80EEDE80       loc_80EEDE80
 0002:80EEDECC       loc_80EEDECC
 0002:80EEDF20       locret_80EEDF20
 0002:80EEDF48       loc_80EEDF48
 0002:80EEDF5C       loc_80EEDF5C
 0002:80EEDF78       loc_80EEDF78
 0002:80EEDF8C       loc_80EEDF8C
 0002:80EEDFA8       locret_80EEDFA8
 0002:80EEE004       loc_80EEE004
 0002:80EEE04C       loc_80EEE04C
 0002:80EEE08C       locret_80EEE08C
 0002:80EEE0B0       locret_80EEE0B0
 0002:80EEE0FC       loc_80EEE0FC
 0002:80EEE14C       loc_80EEE14C
 0002:80EEE1D0       locret_80EEE1D0
 0002:80EEE1F4       locret_80EEE1F4
 0002:80EEE224       loc_80EEE224
 0002:80EEE240       loc_80EEE240
 0002:80EEE254       loc_80EEE254
 0002:80EEE280       loc_80EEE280
 0002:80EEEDC8       sub_80EEEDC8
 0002:80EEEDD0       nullsub_26
 0002:80EEEDF8       locret_80EEEDF8
 0002:80EEF8A8       loc_80EEF8A8
 0002:80EEF8AC       locret_80EEF8AC
 0002:80EEFE30       sub_80EEFE30
 0002:80EEFE54       loc_80EEFE54
 0002:80EEFE68       loc_80EEFE68
 0002:80EEFE8C       loc_80EEFE8C
 0002:80EEFE98       loc_80EEFE98
 0002:80EEFE9C       loc_80EEFE9C
 0002:80EEFEC0       loc_80EEFEC0
 0002:80EEFEE4       loc_80EEFEE4
 0002:80EEFF08       loc_80EEFF08
 0002:80EEFF2C       loc_80EEFF2C
 0002:80EEFF34       loc_80EEFF34
 0002:80EEFF38       loc_80EEFF38
 0002:80EF1044       loc_80EF1044
 0002:80EF1060       loc_80EF1060
 0002:80EF106C       locret_80EF106C
 0002:80EF15A0       locret_80EF15A0
 0002:80EF2058       sub_80EF2058
 0002:80EF20E8       loc_80EF20E8
 0002:80EF2124       loc_80EF2124
 0002:80EF215C       loc_80EF215C
 0002:80EF2168       sub_80EF2168
 0002:80EF2210       loc_80EF2210
 0002:80EF221C       sub_80EF221C
 0002:80EF22B8       sub_80EF22B8
 0002:80EF2308       sub_80EF2308
 0002:80EF2358       sub_80EF2358
 0002:80EF23A8       sub_80EF23A8
 0002:80EF31F8       loc_80EF31F8
 0002:80EF3234       loc_80EF3234
 0002:80EF3240       loc_80EF3240
 0002:80EF3260       loc_80EF3260
 0002:80EF3318       nullsub_27
 0002:80EF3320       loc_80EF3320
 0002:80EF3358       loc_80EF3358
 0002:80EF3388       loc_80EF3388
 0002:80EF3394       loc_80EF3394
 0002:80EF33A8       loc_80EF33A8
 0002:80EF33C4       locret_80EF33C4
 0002:80EF35A8       loc_80EF35A8
 0002:80EF364C       loc_80EF364C
 0002:80EF3668       loc_80EF3668
 0002:80EF36E8       loc_80EF36E8
 0002:80EF371C       loc_80EF371C
 0002:80EF3728       loc_80EF3728
 0002:80EF3750       loc_80EF3750
 0002:80EF3758       loc_80EF3758
 0002:80EF3870       loc_80EF3870
 0002:80EF39A4       loc_80EF39A4
 0002:80EF39EC       loc_80EF39EC
 0002:80EF3A18       loc_80EF3A18
 0002:80EF3A5C       loc_80EF3A5C
 0002:80EF3A60       loc_80EF3A60
 0002:80EF3AA0       loc_80EF3AA0
 0002:80EF3B14       loc_80EF3B14
 0002:80EF3BC4       loc_80EF3BC4
 0002:80EF3C00       loc_80EF3C00
 0002:80EF3C2C       loc_80EF3C2C
 0002:80EF3C68       loc_80EF3C68
 0002:80EF3CCC       loc_80EF3CCC
 0002:80EF3CF4       loc_80EF3CF4
 0002:80EF3D08       loc_80EF3D08
 0002:80EF3D14       loc_80EF3D14
 0002:80EF3D80       loc_80EF3D80
 0002:80EF3D88       loc_80EF3D88
 0002:80EF3DA4       loc_80EF3DA4
 0002:80EF3DC0       loc_80EF3DC0
 0002:80EF3DFC       loc_80EF3DFC
 0002:80EF3E2C       loc_80EF3E2C
 0002:80EF3E6C       loc_80EF3E6C
 0002:80EF3F60       loc_80EF3F60
 0002:80EF3FB4       loc_80EF3FB4
 0002:80EF4014       loc_80EF4014
 0002:80EF4050       loc_80EF4050
 0002:80EF406C       locret_80EF406C
 0002:80EF410C       loc_80EF410C
 0002:80EF4128       loc_80EF4128
 0002:80EF413C       loc_80EF413C
 0002:80EF4178       loc_80EF4178
 0002:80EF4184       loc_80EF4184
 0002:80EF419C       loc_80EF419C
 0002:80EF4240       loc_80EF4240
 0002:80EF427C       loc_80EF427C
 0002:80EF4288       loc_80EF4288
 0002:80EF42A8       loc_80EF42A8
 0002:80EF4370       nullsub_28
 0002:80EF4378       loc_80EF4378
 0002:80EF43B0       loc_80EF43B0
 0002:80EF4400       loc_80EF4400
 0002:80EF4610       loc_80EF4610
 0002:80EF46B4       loc_80EF46B4
 0002:80EF46D0       loc_80EF46D0
 0002:80EF4748       loc_80EF4748
 0002:80EF477C       loc_80EF477C
 0002:80EF4788       loc_80EF4788
 0002:80EF47B0       loc_80EF47B0
 0002:80EF47B8       loc_80EF47B8
 0002:80EF48D0       loc_80EF48D0
 0002:80EF4A04       loc_80EF4A04
 0002:80EF4A4C       loc_80EF4A4C
 0002:80EF4A78       loc_80EF4A78
 0002:80EF4ABC       loc_80EF4ABC
 0002:80EF4AC0       loc_80EF4AC0
 0002:80EF4B00       loc_80EF4B00
 0002:80EF4B74       loc_80EF4B74
 0002:80EF4C24       loc_80EF4C24
 0002:80EF4C58       loc_80EF4C58
 0002:80EF4C84       loc_80EF4C84
 0002:80EF4CC0       loc_80EF4CC0
 0002:80EF4D24       loc_80EF4D24
 0002:80EF4D4C       loc_80EF4D4C
 0002:80EF4D60       loc_80EF4D60
 0002:80EF4D6C       loc_80EF4D6C
 0002:80EF4DD8       loc_80EF4DD8
 0002:80EF4DE0       loc_80EF4DE0
 0002:80EF4DFC       loc_80EF4DFC
 0002:80EF4E18       loc_80EF4E18
 0002:80EF4E54       loc_80EF4E54
 0002:80EF4E84       loc_80EF4E84
 0002:80EF4EC4       loc_80EF4EC4
 0002:80EF4FB8       loc_80EF4FB8
 0002:80EF500C       loc_80EF500C
 0002:80EF506C       loc_80EF506C
 0002:80EF50A8       loc_80EF50A8
 0002:80EF50C4       locret_80EF50C4
 0002:80EF5120       loc_80EF5120
 0002:80EF5158       loc_80EF5158
 0002:80EF5178       loc_80EF5178
 0002:80EF517C       loc_80EF517C
 0002:80EF51AC       loc_80EF51AC
 0002:80EF51F4       sub_80EF51F4
 0002:80EF52E8       loc_80EF52E8
 0002:80EF52F4       loc_80EF52F4
 0002:80EF5310       loc_80EF5310
 0002:80EF5430       loc_80EF5430
 0002:80EF54C4       loc_80EF54C4
 0002:80EF553C       loc_80EF553C
 0002:80EF5570       loc_80EF5570
 0002:80EF557C       loc_80EF557C
 0002:80EF55A4       loc_80EF55A4
 0002:80EF55AC       loc_80EF55AC
 0002:80EF56B8       loc_80EF56B8
 0002:80EF57F0       loc_80EF57F0
 0002:80EF5838       loc_80EF5838
 0002:80EF586C       loc_80EF586C
 0002:80EF5884       loc_80EF5884
 0002:80EF5890       loc_80EF5890
 0002:80EF5900       loc_80EF5900
 0002:80EF598C       loc_80EF598C
 0002:80EF5B64       loc_80EF5B64
 0002:80EF5B94       loc_80EF5B94
 0002:80EF5BBC       loc_80EF5BBC
 0002:80EF5C10       loc_80EF5C10
 0002:80EF5DFC       loc_80EF5DFC
 0002:80EF602C       loc_80EF602C
 0002:80EF6080       loc_80EF6080
 0002:80EF60B0       loc_80EF60B0
 0002:80EF60B4       loc_80EF60B4
 0002:80EF6288       loc_80EF6288
 0002:80EF654C       loc_80EF654C
 0002:80EF6594       loc_80EF6594
 0002:80EF65B4       loc_80EF65B4
 0002:80EF65B8       loc_80EF65B8
 0002:80EF65E8       loc_80EF65E8
 0002:80EF665C       nullsub_29
 0002:80EF6678       loc_80EF6678
 0002:80EF6684       loc_80EF6684
 0002:80EF6698       loc_80EF6698
 0002:80EF66B4       locret_80EF66B4
 0002:80EF6800       loc_80EF6800
 0002:80EF688C       loc_80EF688C
 0002:80EF690C       loc_80EF690C
 0002:80EF6940       loc_80EF6940
 0002:80EF694C       loc_80EF694C
 0002:80EF6974       loc_80EF6974
 0002:80EF697C       loc_80EF697C
 0002:80EF6A94       loc_80EF6A94
 0002:80EF6BCC       loc_80EF6BCC
 0002:80EF6C14       loc_80EF6C14
 0002:80EF6C40       loc_80EF6C40
 0002:80EF6C54       loc_80EF6C54
 0002:80EF6C60       loc_80EF6C60
 0002:80EF6D18       loc_80EF6D18
 0002:80EF6EE0       loc_80EF6EE0
 0002:80EF6F34       loc_80EF6F34
 0002:80EF6F64       loc_80EF6F64
 0002:80EF6F8C       loc_80EF6F8C
 0002:80EF6FEC       loc_80EF6FEC
 0002:80EF7100       loc_80EF7100
 0002:80EF71E0       loc_80EF71E0
 0002:80EF7220       loc_80EF7220
 0002:80EF7328       loc_80EF7328
 0002:80EF742C       loc_80EF742C
 0002:80EF7480       loc_80EF7480
 0002:80EF74B0       loc_80EF74B0
 0002:80EF74B4       loc_80EF74B4
 0002:80EF7560       loc_80EF7560
 0002:80EF7568       loc_80EF7568
 0002:80EF758C       loc_80EF758C
 0002:80EF75AC       loc_80EF75AC
 0002:80EF75C4       loc_80EF75C4
 0002:80EF75E8       loc_80EF75E8
 0002:80EF7688       loc_80EF7688
 0002:80EF7738       loc_80EF7738
 0002:80EF7794       loc_80EF7794
 0002:80EF7798       loc_80EF7798
 0002:80EF7808       loc_80EF7808
 0002:80EF7810       loc_80EF7810
 0002:80EF785C       loc_80EF785C
 0002:80EF794C       loc_80EF794C
 0002:80EF7994       loc_80EF7994
 0002:80EF79B4       loc_80EF79B4
 0002:80EF79B8       loc_80EF79B8
 0002:80EF79E8       loc_80EF79E8
 0002:80EF7A5C       nullsub_30
 0002:80EF7A98       loc_80EF7A98
 0002:80EF7C10       loc_80EF7C10
 0002:80EF7C9C       loc_80EF7C9C
 0002:80EF7D14       loc_80EF7D14
 0002:80EF7D48       loc_80EF7D48
 0002:80EF7D54       loc_80EF7D54
 0002:80EF7D7C       loc_80EF7D7C
 0002:80EF7D84       loc_80EF7D84
 0002:80EF7E9C       loc_80EF7E9C
 0002:80EF7FD4       loc_80EF7FD4
 0002:80EF801C       loc_80EF801C
 0002:80EF8048       loc_80EF8048
 0002:80EF805C       loc_80EF805C
 0002:80EF8068       loc_80EF8068
 0002:80EF8118       loc_80EF8118
 0002:80EF82D8       loc_80EF82D8
 0002:80EF833C       loc_80EF833C
 0002:80EF836C       loc_80EF836C
 0002:80EF8394       loc_80EF8394
 0002:80EF83F4       loc_80EF83F4
 0002:80EF84F8       loc_80EF84F8
 0002:80EF85E0       loc_80EF85E0
 0002:80EF8620       loc_80EF8620
 0002:80EF8728       loc_80EF8728
 0002:80EF882C       loc_80EF882C
 0002:80EF8880       loc_80EF8880
 0002:80EF88B0       loc_80EF88B0
 0002:80EF88B4       loc_80EF88B4
 0002:80EF8960       loc_80EF8960
 0002:80EF8968       loc_80EF8968
 0002:80EF898C       loc_80EF898C
 0002:80EF89AC       loc_80EF89AC
 0002:80EF89C4       loc_80EF89C4
 0002:80EF89E8       loc_80EF89E8
 0002:80EF8A88       loc_80EF8A88
 0002:80EF8B38       loc_80EF8B38
 0002:80EF8B94       loc_80EF8B94
 0002:80EF8B98       loc_80EF8B98
 0002:80EF8C08       loc_80EF8C08
 0002:80EF8C10       loc_80EF8C10
 0002:80EF8C5C       loc_80EF8C5C
 0002:80EF8DC8       loc_80EF8DC8
 0002:80EF8E10       loc_80EF8E10
 0002:80EF8E64       loc_80EF8E64
 0002:80EF8EA8       loc_80EF8EA8
 0002:80EF8EBC       loc_80EF8EBC
 0002:80EF8ECC       loc_80EF8ECC
 0002:80EF8EEC       loc_80EF8EEC
 0002:80EF8F9C       loc_80EF8F9C
 0002:80EF8FFC       loc_80EF8FFC
 0002:80EF9008       loc_80EF9008
 0002:80EF901C       loc_80EF901C
 0002:80EF9038       locret_80EF9038
 0002:80EF90B8       loc_80EF90B8
 0002:80EF90E8       loc_80EF90E8
 0002:80EF9118       loc_80EF9118
 0002:80EF9144       loc_80EF9144
 0002:80EF9188       loc_80EF9188
 0002:80EF9258       loc_80EF9258
 0002:80EF93C0       loc_80EF93C0
 0002:80EF93FC       loc_80EF93FC
 0002:80EF946C       loc_80EF946C
 0002:80EF9488       loc_80EF9488
 0002:80EF9490       loc_80EF9490
 0002:80EF9514       loc_80EF9514
 0002:80EF9544       loc_80EF9544
 0002:80EF956C       loc_80EF956C
 0002:80EF95B0       loc_80EF95B0
 0002:80EF9684       loc_80EF9684
 0002:80EF97B8       loc_80EF97B8
 0002:80EF9820       loc_80EF9820
 0002:80EF9828       loc_80EF9828
 0002:80EF982C       loc_80EF982C
 0002:80EF9858       loc_80EF9858
 0002:80EF9878       loc_80EF9878
 0002:80EF987C       loc_80EF987C
 0002:80EF98A4       loc_80EF98A4
 0002:80EF98FC       loc_80EF98FC
 0002:80EF9908       loc_80EF9908
 0002:80EF991C       loc_80EF991C
 0002:80EF9938       loc_80EF9938
 0002:80EF9958       loc_80EF9958
 0002:80EF9A78       loc_80EF9A78
 0002:80EF9B28       loc_80EF9B28
 0002:80EF9B88       loc_80EF9B88
 0002:80EF9CDC       loc_80EF9CDC
 0002:80EF9D20       loc_80EF9D20
 0002:80EF9D6C       loc_80EF9D6C
 0002:80EF9DA0       loc_80EF9DA0
 0002:80EF9DAC       loc_80EF9DAC
 0002:80EF9DD4       loc_80EF9DD4
 0002:80EF9DDC       loc_80EF9DDC
 0002:80EF9EDC       loc_80EF9EDC
 0002:80EF9EF4       loc_80EF9EF4
 0002:80EF9F00       loc_80EF9F00
 0002:80EF9F70       loc_80EF9F70
 0002:80EFA000       loc_80EFA000
 0002:80EFA1F4       loc_80EFA1F4
 0002:80EFA204       loc_80EFA204
 0002:80EFA414       loc_80EFA414
 0002:80EFA434       loc_80EFA434
 0002:80EFA474       loc_80EFA474
 0002:80EFA57C       loc_80EFA57C
 0002:80EFA678       loc_80EFA678
 0002:80EFA6E4       loc_80EFA6E4
 0002:80EFA6EC       loc_80EFA6EC
 0002:80EFA6F0       loc_80EFA6F0
 0002:80EFA734       loc_80EFA734
 0002:80EFA780       loc_80EFA780
 0002:80EFA84C       loc_80EFA84C
 0002:80EFA860       loc_80EFA860
 0002:80EFA884       loc_80EFA884
 0002:80EFA8A4       loc_80EFA8A4
 0002:80EFA8BC       loc_80EFA8BC
 0002:80EFA8E0       loc_80EFA8E0
 0002:80EFA980       loc_80EFA980
 0002:80EFAA30       loc_80EFAA30
 0002:80EFAA8C       loc_80EFAA8C
 0002:80EFAA90       loc_80EFAA90
 0002:80EFAB00       loc_80EFAB00
 0002:80EFAB08       loc_80EFAB08
 0002:80EFAB54       loc_80EFAB54
 0002:80EFAC50       loc_80EFAC50
 0002:80EFAC88       loc_80EFAC88
 0002:80EFACA8       loc_80EFACA8
 0002:80EFACAC       loc_80EFACAC
 0002:80EFACD4       loc_80EFACD4
 0002:80EFAD2C       loc_80EFAD2C
 0002:80EFAD38       loc_80EFAD38
 0002:80EFAD4C       loc_80EFAD4C
 0002:80EFAD68       loc_80EFAD68
 0002:80EFAD88       loc_80EFAD88
 0002:80EFAEA8       loc_80EFAEA8
 0002:80EFAF58       loc_80EFAF58
 0002:80EFAFB8       loc_80EFAFB8
 0002:80EFB0EC       loc_80EFB0EC
 0002:80EFB130       loc_80EFB130
 0002:80EFB17C       loc_80EFB17C
 0002:80EFB1B0       loc_80EFB1B0
 0002:80EFB1BC       loc_80EFB1BC
 0002:80EFB1E4       loc_80EFB1E4
 0002:80EFB1EC       loc_80EFB1EC
 0002:80EFB2EC       loc_80EFB2EC
 0002:80EFB304       loc_80EFB304
 0002:80EFB310       loc_80EFB310
 0002:80EFB380       loc_80EFB380
 0002:80EFB410       loc_80EFB410
 0002:80EFB614       loc_80EFB614
 0002:80EFB644       loc_80EFB644
 0002:80EFB844       loc_80EFB844
 0002:80EFB864       loc_80EFB864
 0002:80EFB884       loc_80EFB884
 0002:80EFB98C       loc_80EFB98C
 0002:80EFBA88       loc_80EFBA88
 0002:80EFBAF4       loc_80EFBAF4
 0002:80EFBAFC       loc_80EFBAFC
 0002:80EFBB00       loc_80EFBB00
 0002:80EFBB84       loc_80EFBB84
 0002:80EFBBB0       loc_80EFBBB0
 0002:80EFBC7C       loc_80EFBC7C
 0002:80EFBC90       loc_80EFBC90
 0002:80EFBCB4       loc_80EFBCB4
 0002:80EFBCD4       loc_80EFBCD4
 0002:80EFBCEC       loc_80EFBCEC
 0002:80EFBD10       loc_80EFBD10
 0002:80EFBDB0       loc_80EFBDB0
 0002:80EFBE60       loc_80EFBE60
 0002:80EFBEBC       loc_80EFBEBC
 0002:80EFBEC0       loc_80EFBEC0
 0002:80EFBF30       loc_80EFBF30
 0002:80EFBF38       loc_80EFBF38
 0002:80EFBF84       loc_80EFBF84
 0002:80EFC080       loc_80EFC080
 0002:80EFC0B8       loc_80EFC0B8
 0002:80EFC0D8       loc_80EFC0D8
 0002:80EFC0DC       loc_80EFC0DC
 0002:80EFC10C       loc_80EFC10C
 0002:80EFC154       sub_80EFC154
 0002:80EFC2CC       loc_80EFC2CC
 0002:80EFC2D8       loc_80EFC2D8
 0002:80EFC2EC       loc_80EFC2EC
 0002:80EFC434       loc_80EFC434
 0002:80EFC4B8       loc_80EFC4B8
 0002:80EFC53C       loc_80EFC53C
 0002:80EFC6BC       loc_80EFC6BC
 0002:80EFC708       loc_80EFC708
 0002:80EFC73C       loc_80EFC73C
 0002:80EFC748       loc_80EFC748
 0002:80EFC764       loc_80EFC764
 0002:80EFC770       loc_80EFC770
 0002:80EFC778       loc_80EFC778
 0002:80EFC878       loc_80EFC878
 0002:80EFC898       loc_80EFC898
 0002:80EFC908       loc_80EFC908
 0002:80EFC984       loc_80EFC984
 0002:80EFC998       loc_80EFC998
 0002:80EFCB24       loc_80EFCB24
 0002:80EFCB54       loc_80EFCB54
 0002:80EFCB7C       loc_80EFCB7C
 0002:80EFCBB0       loc_80EFCBB0
 0002:80EFCC90       loc_80EFCC90
 0002:80EFCD6C       loc_80EFCD6C
 0002:80EFCDC8       loc_80EFCDC8
 0002:80EFCE44       loc_80EFCE44
 0002:80EFCE4C       loc_80EFCE4C
 0002:80EFCE54       loc_80EFCE54
 0002:80EFCEEC       loc_80EFCEEC
 0002:80EFCF00       loc_80EFCF00
 0002:80EFCF24       loc_80EFCF24
 0002:80EFCF44       loc_80EFCF44
 0002:80EFCF5C       loc_80EFCF5C
 0002:80EFCF80       loc_80EFCF80
 0002:80EFD020       loc_80EFD020
 0002:80EFD0D0       loc_80EFD0D0
 0002:80EFD104       loc_80EFD104
 0002:80EFD12C       loc_80EFD12C
 0002:80EFD1A0       loc_80EFD1A0
 0002:80EFD1A8       loc_80EFD1A8
 0002:80EFD1F4       loc_80EFD1F4
 0002:80EFD2F0       loc_80EFD2F0
 0002:80EFD328       loc_80EFD328
 0002:80EFD348       loc_80EFD348
 0002:80EFD34C       loc_80EFD34C
 0002:80EFD374       loc_80EFD374
 0002:80EFD3AC       loc_80EFD3AC
 0002:80EFD3B0       loc_80EFD3B0
 0002:80EFD3DC       loc_80EFD3DC
 0002:80EFD3E8       loc_80EFD3E8
 0002:80EFD3FC       loc_80EFD3FC
 0002:80EFD418       loc_80EFD418
 0002:80EFD434       loc_80EFD434
 0002:80EFD520       loc_80EFD520
 0002:80EFD5D4       loc_80EFD5D4
 0002:80EFD65C       loc_80EFD65C
 0002:80EFD6E0       loc_80EFD6E0
 0002:80EFD8C8       loc_80EFD8C8
 0002:80EFD92C       loc_80EFD92C
 0002:80EFD978       loc_80EFD978
 0002:80EFD9AC       loc_80EFD9AC
 0002:80EFD9B8       loc_80EFD9B8
 0002:80EFD9E0       loc_80EFD9E0
 0002:80EFD9E8       loc_80EFD9E8
 0002:80EFDAE8       loc_80EFDAE8
 0002:80EFDB08       loc_80EFDB08
 0002:80EFDB78       loc_80EFDB78
 0002:80EFDB8C       loc_80EFDB8C
 0002:80EFDC08       loc_80EFDC08
 0002:80EFDD44       loc_80EFDD44
 0002:80EFDE20       loc_80EFDE20
 0002:80EFE028       loc_80EFE028
 0002:80EFE068       loc_80EFE068
 0002:80EFE080       loc_80EFE080
 0002:80EFE094       loc_80EFE094
 0002:80EFE250       loc_80EFE250
 0002:80EFE4F4       loc_80EFE4F4
 0002:80EFE568       loc_80EFE568
 0002:80EFE570       loc_80EFE570
 0002:80EFE5BC       loc_80EFE5BC
 0002:80EFE6C0       loc_80EFE6C0
 0002:80EFE6F8       loc_80EFE6F8
 0002:80EFE718       loc_80EFE718
 0002:80EFE71C       loc_80EFE71C
 0002:80EFE744       loc_80EFE744
 0002:80EFE77C       loc_80EFE77C
 0002:80EFE780       loc_80EFE780
 0002:80EFE7AC       loc_80EFE7AC
 0002:80EFE7B8       loc_80EFE7B8
 0002:80EFE7CC       loc_80EFE7CC
 0002:80EFE7E8       loc_80EFE7E8
 0002:80EFE804       loc_80EFE804
 0002:80EFE900       loc_80EFE900
 0002:80EFE9BC       loc_80EFE9BC
 0002:80EFEA4C       loc_80EFEA4C
 0002:80EFEAD0       loc_80EFEAD0
 0002:80EFECC4       loc_80EFECC4
 0002:80EFED40       loc_80EFED40
 0002:80EFED8C       loc_80EFED8C
 0002:80EFEDC0       loc_80EFEDC0
 0002:80EFEDCC       loc_80EFEDCC
 0002:80EFEDF4       loc_80EFEDF4
 0002:80EFEDFC       loc_80EFEDFC
 0002:80EFEEFC       loc_80EFEEFC
 0002:80EFEF14       loc_80EFEF14
 0002:80EFEF20       loc_80EFEF20
 0002:80EFEF90       loc_80EFEF90
 0002:80EFF020       loc_80EFF020
 0002:80EFF0CC       loc_80EFF0CC
 0002:80EFF240       loc_80EFF240
 0002:80EFF2D8       loc_80EFF2D8
 0002:80EFF410       loc_80EFF410
 0002:80EFF544       loc_80EFF544
 0002:80EFF59C       loc_80EFF59C
 0002:80EFF5B0       loc_80EFF5B0
 0002:80EFF620       loc_80EFF620
 0002:80EFF8C4       loc_80EFF8C4
 0002:80EFF938       loc_80EFF938
 0002:80EFF940       loc_80EFF940
 0002:80EFF98C       loc_80EFF98C
 0002:80EFFA8C       loc_80EFFA8C
 0002:80EFFAD4       loc_80EFFAD4
 0002:80EFFAF4       loc_80EFFAF4
 0002:80EFFAF8       loc_80EFFAF8
 0002:80EFFB28       loc_80EFFB28
 0002:80EFFB9C       nullsub_31
 0002:80EFFBC4       loc_80EFFBC4
 0002:80EFFBD0       loc_80EFFBD0
 0002:80EFFBE4       loc_80EFFBE4
 0002:80EFFC00       loc_80EFFC00
 0002:80EFFC20       loc_80EFFC20
 0002:80EFFD44       loc_80EFFD44
 0002:80EFFDD0       loc_80EFFDD0
 0002:80EFFE48       loc_80EFFE48
 0002:80EFFE7C       loc_80EFFE7C
 0002:80EFFE88       loc_80EFFE88
 0002:80EFFEB0       loc_80EFFEB0
 0002:80EFFEB8       loc_80EFFEB8
 0002:80EFFFBC       sub_80EFFFBC
 0002:80EFFFD0       loc_80EFFFD0
 0002:80F00108       loc_80F00108
 0002:80F00150       loc_80F00150
 0002:80F0017C       loc_80F0017C
 0002:80F00194       loc_80F00194
 0002:80F001A0       loc_80F001A0
 0002:80F00210       loc_80F00210
 0002:80F0029C       loc_80F0029C
 0002:80F00418       loc_80F00418
 0002:80F00474       loc_80F00474
 0002:80F004A4       loc_80F004A4
 0002:80F004CC       loc_80F004CC
 0002:80F0052C       loc_80F0052C
 0002:80F00638       loc_80F00638
 0002:80F00718       loc_80F00718
 0002:80F00758       loc_80F00758
 0002:80F00860       loc_80F00860
 0002:80F00964       loc_80F00964
 0002:80F009B8       loc_80F009B8
 0002:80F009E8       loc_80F009E8
 0002:80F009EC       loc_80F009EC
 0002:80F00A98       loc_80F00A98
 0002:80F00AA0       loc_80F00AA0
 0002:80F00AC4       loc_80F00AC4
 0002:80F00AE4       loc_80F00AE4
 0002:80F00AFC       loc_80F00AFC
 0002:80F00B1C       loc_80F00B1C
 0002:80F00B20       loc_80F00B20
 0002:80F00BC0       loc_80F00BC0
 0002:80F00C70       loc_80F00C70
 0002:80F00CCC       loc_80F00CCC
 0002:80F00CD0       loc_80F00CD0
 0002:80F00D40       loc_80F00D40
 0002:80F00D48       loc_80F00D48
 0002:80F00D94       loc_80F00D94
 0002:80F0110C       loc_80F0110C
 0002:80F0113C       loc_80F0113C
 0002:80F01154       loc_80F01154
 0002:80F0118C       loc_80F0118C
 0002:80F0120C       loc_80F0120C
 0002:80F01218       loc_80F01218
 0002:80F01234       locret_80F01234
 0002:80F01464       loc_80F01464
 0002:80F014AC       locret_80F014AC
 0002:80F01930       loc_80F01930
 0002:80F01980       locret_80F01980
 0002:80F01A2C       nullsub_32
 0002:80F01A54       nullsub_33
 0002:80F01A5C       nullsub_34
 0002:80F01A64       nullsub_35
 0002:80F01AA0       nullsub_36
 0002:80F01AA8       nullsub_37
 0002:80F01AB0       nullsub_38
 0002:80F01AEC       nullsub_39
 0002:80F01AF4       nullsub_40
 0002:80F01B28       nullsub_41
 0002:80F01B30       nullsub_42
 0002:80F01B38       nullsub_43
 0002:80F01B40       nullsub_44
 0002:80F01BA0       nullsub_45
 0002:80F01C14       nullsub_46
 0002:80F01C1C       nullsub_47
 0002:80F01C24       nullsub_48
 0002:80F01CB0       nullsub_49
 0002:80F01CB8       nullsub_50
 0002:80F01CC0       nullsub_51
 0002:80F01CC8       nullsub_52
 0002:80F01CF4       nullsub_53
 0002:80F01CFC       nullsub_54
 0002:80F01D04       nullsub_55
 0002:80F0380C       loc_80F0380C
 0002:80F03824       loc_80F03824
 0002:80F03850       loc_80F03850
 0002:80F03884       loc_80F03884
 0002:80F038A0       sub_80F038A0
 0002:80F038D0       loc_80F038D0
 0002:80F038EC       loc_80F038EC
 0002:80F0390C       loc_80F0390C
 0002:80F0397C       loc_80F0397C
 0002:80F03990       loc_80F03990
 0002:80F039A0       loc_80F039A0
 0002:80F039B8       loc_80F039B8
 0002:80F039D4       loc_80F039D4
 0002:80F039FC       loc_80F039FC
 0002:80F03A74       loc_80F03A74
 0002:80F03A98       loc_80F03A98
 0002:80F03AF0       loc_80F03AF0
 0002:80F03B3C       loc_80F03B3C
 0002:80F03B74       loc_80F03B74
 0002:80F03C38       loc_80F03C38
 0002:80F03C88       loc_80F03C88
 0002:80F03D8C       loc_80F03D8C
 0002:80F03E4C       loc_80F03E4C
 0002:80F03F10       loc_80F03F10
 0002:80F03F20       loc_80F03F20
 0002:80F03F40       loc_80F03F40
 0002:80F03F50       loc_80F03F50
 0002:80F03F70       loc_80F03F70
 0002:80F03F80       loc_80F03F80
 0002:80F03F90       loc_80F03F90
 0002:80F03FA0       loc_80F03FA0
 0002:80F03FB0       loc_80F03FB0
 0002:80F04304       locret_80F04304
 0002:80F0430C       loc_80F0430C
 0002:80F04EE8       loc_80F04EE8
 0002:80F04F44       loc_80F04F44
 0002:80F04FC0       loc_80F04FC0
 0002:80F04FCC       loc_80F04FCC
 0002:80F04FD8       loc_80F04FD8
 0002:80F05060       loc_80F05060
 0002:80F0506C       loc_80F0506C
 0002:80F05078       loc_80F05078
 0002:80F05098       loc_80F05098
 0002:80F05100       loc_80F05100
 0002:80F0510C       loc_80F0510C
 0002:80F05118       loc_80F05118
 0002:80F05188       loc_80F05188
 0002:80F05194       loc_80F05194
 0002:80F051A0       loc_80F051A0
 0002:80F05210       loc_80F05210
 0002:80F0521C       loc_80F0521C
 0002:80F05228       loc_80F05228
 0002:80F0529C       loc_80F0529C
 0002:80F052A8       loc_80F052A8
 0002:80F052B4       loc_80F052B4
 0002:80F052D8       loc_80F052D8
 0002:80F052F0       loc_80F052F0
 0002:80F05318       loc_80F05318
 0002:80F05370       loc_80F05370
 0002:80F054F8       loc_80F054F8
 0002:80F05508       loc_80F05508
 0002:80F05544       loc_80F05544
 0002:80F0555C       loc_80F0555C
 0002:80F05570       loc_80F05570
 0002:80F05588       loc_80F05588
 0002:80F055A4       loc_80F055A4
 0002:80F055C0       loc_80F055C0
 0002:80F055DC       loc_80F055DC
 0002:80F055E8       loc_80F055E8
 0002:80F055F0       loc_80F055F0
 0002:80F05600       locret_80F05600
 0002:80F05634       loc_80F05634
 0002:80F05674       sub_80F05674
 0002:80F056A4       loc_80F056A4
 0002:80F056AC       loc_80F056AC
 0002:80F05750       loc_80F05750
 0002:80F05824       loc_80F05824
 0002:80F0588C       loc_80F0588C
 0002:80F058F0       loc_80F058F0
 0002:80F058FC       loc_80F058FC
 0002:80F05940       loc_80F05940
 0002:80F05960       loc_80F05960
 0002:80F06240       sub_80F06240
 0002:80F068AC       locret_80F068AC
 0002:80F06B6C       loc_80F06B6C
 0002:80F06BA8       loc_80F06BA8
 0002:80F06BC4       loc_80F06BC4
 0002:80F06BDC       loc_80F06BDC
 0002:80F06C18       loc_80F06C18
 0002:80F06C30       locret_80F06C30
 0002:80F072A8       loc_80F072A8
 0002:80F07320       loc_80F07320
 0002:80F07398       loc_80F07398
 0002:80F073D0       locret_80F073D0
 0002:80F07400       locret_80F07400
 0002:80F07430       locret_80F07430
 0002:80F07458       loc_80F07458
 0002:80F07488       loc_80F07488
 0002:80F07490       locret_80F07490
 0002:80F07FCC       loc_80F07FCC
 0002:80F08098       locret_80F08098
 0002:80F080A0       locret_80F080A0
 0002:80F080A8       loc_80F080A8
 0002:80F084DC       loc_80F084DC
 0002:80F084FC       loc_80F084FC
 0002:80F08534       loc_80F08534
 0002:80F08548       nullsub_56
 0002:80F08550       nullsub_57
 0002:80F087F4       loc_80F087F4
 0002:80F0902C       loc_80F0902C
 0002:80F09050       loc_80F09050
 0002:80F09054       loc_80F09054
 0002:80F09064       nullsub_58
 0002:80F09930       loc_80F09930
 0002:80F09960       loc_80F09960
 0002:80F0998C       loc_80F0998C
 0002:80F09990       loc_80F09990
 0002:80F099D4       locret_80F099D4
 0002:80F09F68       loc_80F09F68
 0002:80F09F84       loc_80F09F84
 0002:80F09F98       locret_80F09F98
 0002:80F0A790       loc_80F0A790
 0002:80F0A7A8       loc_80F0A7A8
 0002:80F0A7BC       loc_80F0A7BC
 0002:80F0AC50       loc_80F0AC50
 0002:80F0AC68       sub_80F0AC68
 0002:80F0ACAC       loc_80F0ACAC
 0002:80F0AE08       loc_80F0AE08
 0002:80F0AE60       loc_80F0AE60
 0002:80F0AE88       loc_80F0AE88
 0002:80F0AF68       loc_80F0AF68
 0002:80F0AF6C       loc_80F0AF6C
 0002:80F0AF88       loc_80F0AF88
 0002:80F0B010       locret_80F0B010
 0002:80F0B0F4       locret_80F0B0F4
 0002:80F0B6A8       locret_80F0B6A8
 0002:80F0B824       locret_80F0B824
 0002:80F0BA14       locret_80F0BA14
 0002:80F0BB38       loc_80F0BB38
 0002:80F0BB5C       loc_80F0BB5C
 0002:80F0BB70       loc_80F0BB70
 0002:80F0BB94       loc_80F0BB94
 0002:80F0BBA8       locret_80F0BBA8
 0002:80F0BBB4       locret_80F0BBB4
 0002:80F0BC78       loc_80F0BC78
 0002:80F0BC90       loc_80F0BC90
 0002:80F0BC98       loc_80F0BC98
 0002:80F0BCB8       loc_80F0BCB8
 0002:80F0C0AC       loc_80F0C0AC
 0002:80F0C16C       loc_80F0C16C
 0002:80F0C178       loc_80F0C178
 0002:80F0C1AC       loc_80F0C1AC
 0002:80F0C1B8       loc_80F0C1B8
 0002:80F0C2C0       loc_80F0C2C0
 0002:80F0C820       sub_80F0C820
 0002:80F0C828       sub_80F0C828
 0002:80F0CACC       loc_80F0CACC
 0002:80F0CD94       loc_80F0CD94
 0002:80F0CDD4       loc_80F0CDD4
 0002:80F0CDFC       loc_80F0CDFC
 0002:80F0CE24       loc_80F0CE24
 0002:80F0CE50       loc_80F0CE50
 0002:80F0CE54       loc_80F0CE54
 0002:80F0D2E4       locret_80F0D2E4
 0002:80F0D300       loc_80F0D300
 0002:80F0D30C       loc_80F0D30C
 0002:80F0D32C       loc_80F0D32C
 0002:80F0D334       loc_80F0D334
 0002:80F0D348       loc_80F0D348
 0002:80F0D364       locret_80F0D364
 0002:80F0DABC       loc_80F0DABC
 0002:80F0DB00       loc_80F0DB00
 0002:80F0DB10       loc_80F0DB10
 0002:80F0DB30       loc_80F0DB30
 0002:80F0DB54       loc_80F0DB54
 0002:80F0DB58       loc_80F0DB58
 0002:80F0DBE4       loc_80F0DBE4
 0002:80F0DBFC       loc_80F0DBFC
 0002:80F0DC14       loc_80F0DC14
 0002:80F0DC28       loc_80F0DC28
 0002:80F0DC54       loc_80F0DC54
 0002:80F0DCEB       byte_80F0DCEB
 0002:80F0E038       loc_80F0E038
 0002:80F0E0FC       loc_80F0E0FC
 0002:80F0E114       loc_80F0E114
 0002:80F0E138       loc_80F0E138
 0002:80F0E14C       loc_80F0E14C
 0002:80F0E204       loc_80F0E204
 0002:80F0E210       loc_80F0E210
 0002:80F0E264       loc_80F0E264
 0002:80F0E274       loc_80F0E274
 0002:80F0E280       loc_80F0E280
 0002:80F0E298       loc_80F0E298
 0002:80F0E2D4       loc_80F0E2D4
 0002:80F0E33C       loc_80F0E33C
 0002:80F0E3E8       loc_80F0E3E8
 0002:80F0E440       loc_80F0E440
 0002:80F0E444       loc_80F0E444
 0002:80F0E478       loc_80F0E478
 0002:80F0E49C       loc_80F0E49C
 0002:80F0E4B8       loc_80F0E4B8
 0002:80F0E4D8       locret_80F0E4D8
 0002:80F0E540       loc_80F0E540
 0002:80F0E554       sub_80F0E554
 0002:80F0E598       loc_80F0E598
 0002:80F0E71C       loc_80F0E71C
 0002:80F0E720       loc_80F0E720
 0002:80F0ED94       locret_80F0ED94
 0002:80F0EDB4       loc_80F0EDB4
 0002:80F0EFF8       loc_80F0EFF8
 0002:80F0F1E4       loc_80F0F1E4
 0002:80F0F830       loc_80F0F830
 0002:80F0F884       loc_80F0F884
 0002:80F0F89C       loc_80F0F89C
 0002:80F0F8C0       loc_80F0F8C0
 0002:80F0F8D8       loc_80F0F8D8
 0002:80F0F8E0       loc_80F0F8E0
 0002:80F0F910       loc_80F0F910
 0002:80F0F928       loc_80F0F928
 0002:80F0F92C       loc_80F0F92C
 0002:80F0F93C       loc_80F0F93C
 0002:80F0F948       loc_80F0F948
 0002:80F0F94C       loc_80F0F94C
 0002:80F0FA1C       loc_80F0FA1C
 0002:80F0FA20       loc_80F0FA20
 0002:80F0FA68       loc_80F0FA68
 0002:80F0FA88       loc_80F0FA88
 0002:80F0FAB8       loc_80F0FAB8
 0002:80F0FD4C       loc_80F0FD4C
 0002:80F0FD68       loc_80F0FD68
 0002:80F0FD90       loc_80F0FD90
 0002:80F0FDB8       loc_80F0FDB8
 0002:80F0FDBC       loc_80F0FDBC
 0002:80F0FE0C       loc_80F0FE0C
 0002:80F0FE34       loc_80F0FE34
 0002:80F0FE50       loc_80F0FE50
 0002:80F0FE60       loc_80F0FE60
 0002:80F0FE64       loc_80F0FE64
 0002:80F0FE88       loc_80F0FE88
 0002:80F0FE9C       loc_80F0FE9C
 0002:80F0FEB0       loc_80F0FEB0
 0002:80F0FED0       loc_80F0FED0
 0002:80F0FEF4       loc_80F0FEF4
 0002:80F0FF08       locret_80F0FF08
 0002:80F11AE0       loc_80F11AE0
 0002:80F11B3C       loc_80F11B3C
 0002:80F12208       nullsub_59
 0002:80F125BC       loc_80F125BC
 0002:80F125DC       loc_80F125DC
 0002:80F125F0       loc_80F125F0
 0002:80F12630       loc_80F12630
 0002:80F12650       loc_80F12650
 0002:80F1266C       loc_80F1266C
 0002:80F12678       locret_80F12678
 0002:80F12778       loc_80F12778
 0002:80F12790       loc_80F12790
 0002:80F127D0       locret_80F127D0
 0002:80F127D8       sub_80F127D8
 0002:80F127E0       sub_80F127E0
 0002:80F127E8       sub_80F127E8
 0002:80F127F0       sub_80F127F0
 0002:80F127F8       sub_80F127F8
 0002:80F12800       locret_80F12800
 0002:80F12808       loc_80F12808
 0002:80F1280C       loc_80F1280C
 0002:80F1367C       loc_80F1367C
 0002:80F136A0       loc_80F136A0
 0002:80F13700       loc_80F13700
 0002:80F1370C       loc_80F1370C
 0002:80F1374C       loc_80F1374C
 0002:80F13758       locret_80F13758
 0002:80F13B08       nullsub_60
 0002:80F13D68       loc_80F13D68
 0002:80F14E7C       nullsub_61
 0002:80F159B8       loc_80F159B8
 0002:80F159E8       loc_80F159E8
 0002:80F15A68       loc_80F15A68
 0002:80F15C9C       loc_80F15C9C
 0002:80F15CC0       locret_80F15CC0
 0002:80F15D04       locret_80F15D04
 0002:80F15D0C       locret_80F15D0C
 0002:80F15D30       loc_80F15D30
 0002:80F15D58       loc_80F15D58
 0002:80F15D68       locret_80F15D68
 0002:80F161C0       loc_80F161C0
 0002:80F161D8       loc_80F161D8
 0002:80F161EC       loc_80F161EC
 0002:80F161F8       loc_80F161F8
 0002:80F1621C       loc_80F1621C
 0002:80F16238       loc_80F16238
 0002:80F16240       locret_80F16240
 0002:80F1629C       loc_80F1629C
 0002:80F162A0       loc_80F162A0
 0002:80F16318       loc_80F16318
 0002:80F16324       loc_80F16324
 0002:80F16330       loc_80F16330
 0002:80F16364       loc_80F16364
 0002:80F16384       loc_80F16384
 0002:80F16394       loc_80F16394
 0002:80F163B8       loc_80F163B8
 0002:80F16438       loc_80F16438
 0002:80F1647C       loc_80F1647C
 0002:80F164D0       loc_80F164D0
 0002:80F16590       loc_80F16590
 0002:80F165C8       loc_80F165C8
 0002:80F165D4       loc_80F165D4
 0002:80F16614       loc_80F16614
 0002:80F16634       loc_80F16634
 0002:80F16678       loc_80F16678
 0002:80F166A8       loc_80F166A8
 0002:80F166C8       loc_80F166C8
 0002:80F16704       loc_80F16704
 0002:80F167BC       loc_80F167BC
 0002:80F1680C       loc_80F1680C
 0002:80F16838       loc_80F16838
 0002:80F16870       loc_80F16870
 0002:80F16A40       loc_80F16A40
 0002:80F16A6C       loc_80F16A6C
 0002:80F16A74       loc_80F16A74
 0002:80F16AD4       loc_80F16AD4
 0002:80F16B14       loc_80F16B14
 0002:80F16C04       loc_80F16C04
 0002:80F16CDC       loc_80F16CDC
 0002:80F16EBC       loc_80F16EBC
 0002:80F16EC8       loc_80F16EC8
 0002:80F16EE0       loc_80F16EE0
 0002:80F16EFC       loc_80F16EFC
 0002:80F16F0C       loc_80F16F0C
 0002:80F16F54       loc_80F16F54
 0002:80F16FD8       loc_80F16FD8
 0002:80F16FE4       loc_80F16FE4
 0002:80F17070       loc_80F17070
 0002:80F170F0       loc_80F170F0
 0002:80F17168       loc_80F17168
 0002:80F171E4       loc_80F171E4
 0002:80F188F0       sub_80F188F0
 0002:80F188FC       sub_80F188FC
 0002:80F18908       sub_80F18908
 0002:80F18914       sub_80F18914
 0002:80F18920       sub_80F18920
 0002:80F18D38       loc_80F18D38
 0002:80F18D4C       nullsub_62
 0002:80F191EC       loc_80F191EC
 0002:80F191F8       loc_80F191F8
 0002:80F19204       loc_80F19204
 0002:80F19210       loc_80F19210
 0002:80F1921C       loc_80F1921C
 0002:80F19228       loc_80F19228
 0002:80F19238       loc_80F19238
 0002:80F19244       loc_80F19244
 0002:80F19250       loc_80F19250
 0002:80F1925C       loc_80F1925C
 0002:80F19268       loc_80F19268
 0002:80F19274       loc_80F19274
 0002:80F19280       loc_80F19280
 0002:80F1928C       locret_80F1928C
 0002:80F19BC0       loc_80F19BC0
 0002:80F19E08       loc_80F19E08
 0002:80F19E14       sub_80F19E14
 0002:80F19E50       loc_80F19E50
 0002:80F19E54       loc_80F19E54
 0002:80F19E60       sub_80F19E60
 0002:80F19EF0       sub_80F19EF0
 0002:80F19F18       loc_80F19F18
 0002:80F19F38       loc_80F19F38
 0002:80F19F58       loc_80F19F58
 0002:80F1A494       loc_80F1A494
 0002:80F1A4A4       nullsub_63
 0002:80F1AEEC       loc_80F1AEEC
 0002:80F1B7AC       sub_80F1B7AC
 0002:80F1BF6C       nullsub_64
 0002:80F1CE3C       sub_80F1CE3C
 0002:80F1CE78       loc_80F1CE78
 0002:80F1CE84       loc_80F1CE84
 0002:80F1CEE0       loc_80F1CEE0
 0002:80F1CEEC       loc_80F1CEEC
 0002:80F1D030       loc_80F1D030
 0002:80F1D06C       sub_80F1D06C
 0002:80F1D084       sub_80F1D084
 0002:80F1D090       sub_80F1D090
 0002:80F1D0DC       sub_80F1D0DC
 0002:80F1D100       loc_80F1D100
 0002:80F1D138       loc_80F1D138
 0002:80F1DE60       sub_80F1DE60
 0002:80F1E150       loc_80F1E150
 0002:80F1E3BC       sub_80F1E3BC
 0002:80F1E3E8       loc_80F1E3E8
 0002:80F1E3F4       loc_80F1E3F4
 0002:80F1E420       loc_80F1E420
 0002:80F1E43C       loc_80F1E43C
 0002:80F1E448       loc_80F1E448
 0002:80F1E454       sub_80F1E454
 0002:80F1E480       loc_80F1E480
 0002:80F1E48C       loc_80F1E48C
 0002:80F1E4B8       loc_80F1E4B8
 0002:80F1E4D4       loc_80F1E4D4
 0002:80F1E4E0       loc_80F1E4E0
 0002:80F1E51C       sub_80F1E51C
 0002:80F1E544       loc_80F1E544
 0002:80F1E564       loc_80F1E564
 0002:80F1E584       loc_80F1E584
 0002:80F1E59C       sub_80F1E59C
 0002:80F1E5C8       loc_80F1E5C8
 0002:80F1E5EC       loc_80F1E5EC
 0002:80F1E60C       loc_80F1E60C
 0002:80F1E6CC       loc_80F1E6CC
 0002:80F1E754       loc_80F1E754
 0002:80F1E7D8       loc_80F1E7D8
 0002:80F1E85C       loc_80F1E85C
 0002:80F1E8DC       loc_80F1E8DC
 0002:80F1E960       loc_80F1E960
 0002:80F1E9E0       loc_80F1E9E0
 0002:80F1EA5C       locret_80F1EA5C
 0002:80F1EE70       loc_80F1EE70
 0002:80F1EF90       loc_80F1EF90
 0002:80F1EFB0       loc_80F1EFB0
 0002:80F1EFC8       loc_80F1EFC8
 0002:80F1EFF8       loc_80F1EFF8
 0002:80F1F018       loc_80F1F018
 0002:80F1F034       loc_80F1F034
 0002:80F1F03C       loc_80F1F03C
 0002:80F1F05C       loc_80F1F05C
 0002:80F1F07C       loc_80F1F07C
 0002:80F1F098       loc_80F1F098
 0002:80F1F09C       loc_80F1F09C
 0002:80F1F0D8       loc_80F1F0D8
 0002:80F1F0E8       loc_80F1F0E8
 0002:80F1F0FC       loc_80F1F0FC
 0002:80F1F104       loc_80F1F104
 0002:80F1F108       loc_80F1F108
 0002:80F1F12C       locret_80F1F12C
 0002:80F1F680       sub_80F1F680
 0002:80F1F6A0       loc_80F1F6A0
 0002:80F1F7BC       locret_80F1F7BC
 0002:80F1F91C       loc_80F1F91C
 0002:80F1F930       loc_80F1F930
 0002:80F1F964       loc_80F1F964
 0002:80F1F974       loc_80F1F974
 0002:80F1F994       loc_80F1F994
 0002:80F1F9F0       loc_80F1F9F0
 0002:80F1F9FC       loc_80F1F9FC
 0002:80F1FA00       loc_80F1FA00
 0002:80F1FAC4       loc_80F1FAC4
 0002:80F1FB10       loc_80F1FB10
 0002:80F1FB38       loc_80F1FB38
 0002:80F1FB48       loc_80F1FB48
 0002:80F1FB4C       loc_80F1FB4C
 0002:80F1FB78       sub_80F1FB78
 0002:80F1FBD0       loc_80F1FBD0
 0002:80F1FBFC       loc_80F1FBFC
 0002:80F1FC3C       loc_80F1FC3C
 0002:80F1FC48       loc_80F1FC48
 0002:80F1FC88       loc_80F1FC88
 0002:80F1FD74       loc_80F1FD74
 0002:80F1FD84       loc_80F1FD84
 0002:80F1FE04       loc_80F1FE04
 0002:80F1FE48       loc_80F1FE48
 0002:80F1FE64       loc_80F1FE64
 0002:80F1FE68       loc_80F1FE68
 0002:80F20A24       loc_80F20A24
 0002:80F20A28       loc_80F20A28
 0002:80F20A40       loc_80F20A40
 0002:80F20A60       loc_80F20A60
 0002:80F20AB0       loc_80F20AB0
 0002:80F20AB8       loc_80F20AB8
 0002:80F20AD4       loc_80F20AD4
 0002:80F20B24       loc_80F20B24
 0002:80F20B2C       loc_80F20B2C
 0002:80F20B34       loc_80F20B34
 0002:80F20C64       loc_80F20C64
 0002:80F20C68       loc_80F20C68
 0002:80F20CA4       loc_80F20CA4
 0002:80F20CDC       loc_80F20CDC
 0002:80F20CE4       locret_80F20CE4
 0002:80F20D44       sub_80F20D44
 0002:80F20D7C       loc_80F20D7C
 0002:80F20D88       loc_80F20D88
 0002:80F20DE8       loc_80F20DE8
 0002:80F20E40       loc_80F20E40
 0002:80F20E4C       loc_80F20E4C
 0002:80F20E5C       loc_80F20E5C
 0002:80F20E6C       loc_80F20E6C
 0002:80F20E78       loc_80F20E78
 0002:80F20ECC       loc_80F20ECC
 0002:80F20F24       loc_80F20F24
 0002:80F20F30       loc_80F20F30
 0002:80F20F38       loc_80F20F38
 0002:80F21004       sub_80F21004
 0002:80F21A24       sub_80F21A24
 0002:80F21A4C       loc_80F21A4C
 0002:80F21A50       loc_80F21A50
 0002:80F21A58       loc_80F21A58
 0002:80F21A7C       loc_80F21A7C
 0002:80F21A80       loc_80F21A80
 0002:80F21A88       loc_80F21A88
 0002:80F21B54       loc_80F21B54
 0002:80F21DEC       sub_80F21DEC
 0002:80F21E2C       loc_80F21E2C
 0002:80F21E68       loc_80F21E68
 0002:80F21E70       loc_80F21E70
 0002:80F21ECC       loc_80F21ECC
 0002:80F21EE4       locret_80F21EE4
 0002:80F21EEC       sub_80F21EEC
 0002:80F21F20       loc_80F21F20
 0002:80F21F24       loc_80F21F24
 0002:80F21F2C       loc_80F21F2C
 0002:80F21F68       loc_80F21F68
 0002:80F21F6C       loc_80F21F6C
 0002:80F21F94       loc_80F21F94
 0002:80F21FC0       loc_80F21FC0
 0002:80F21FDC       loc_80F21FDC
 0002:80F21FF8       loc_80F21FF8
 0002:80F21FFC       loc_80F21FFC
 0002:80F22004       loc_80F22004
 0002:80F22020       loc_80F22020
 0002:80F22028       loc_80F22028
 0002:80F22054       loc_80F22054
 0002:80F22058       loc_80F22058
 0002:80F22060       loc_80F22060
 0002:80F22090       loc_80F22090
 0002:80F220AC       loc_80F220AC
 0002:80F220B0       loc_80F220B0
 0002:80F220B8       loc_80F220B8
 0002:80F220C4       sub_80F220C4
 0002:80F220EC       loc_80F220EC
 0002:80F220F4       loc_80F220F4
 0002:80F22138       loc_80F22138
 0002:80F22150       loc_80F22150
 0002:80F22154       loc_80F22154
 0002:80F2215C       loc_80F2215C
 0002:80F22160       locret_80F22160
 0002:80F22168       sub_80F22168
 0002:80F221A8       loc_80F221A8
 0002:80F221E4       loc_80F221E4
 0002:80F221EC       loc_80F221EC
 0002:80F22298       sub_80F22298
 0002:80F222C0       loc_80F222C0
 0002:80F222C8       loc_80F222C8
 0002:80F222F0       loc_80F222F0
 0002:80F22308       loc_80F22308
 0002:80F2230C       loc_80F2230C
 0002:80F22314       loc_80F22314
 0002:80F22318       locret_80F22318
 0002:80F22320       sub_80F22320
 0002:80F22350       loc_80F22350
 0002:80F22354       loc_80F22354
 0002:80F2235C       loc_80F2235C
 0002:80F2238C       loc_80F2238C
 0002:80F223B4       loc_80F223B4
 0002:80F223E0       loc_80F223E0
 0002:80F223FC       loc_80F223FC
 0002:80F22418       loc_80F22418
 0002:80F2241C       loc_80F2241C
 0002:80F22424       loc_80F22424
 0002:80F22430       sub_80F22430
 0002:80F22464       loc_80F22464
 0002:80F22468       loc_80F22468
 0002:80F22488       loc_80F22488
 0002:80F2248C       loc_80F2248C
 0002:80F22494       loc_80F22494
 0002:80F224C8       loc_80F224C8
 0002:80F224E4       loc_80F224E4
 0002:80F224F4       loc_80F224F4
 0002:80F22504       loc_80F22504
 0002:80F22508       loc_80F22508
 0002:80F22528       loc_80F22528
 0002:80F2252C       loc_80F2252C
 0002:80F22538       loc_80F22538
 0002:80F22564       loc_80F22564
 0002:80F22580       loc_80F22580
 0002:80F22584       loc_80F22584
 0002:80F2258C       loc_80F2258C
 0002:80F22590       locret_80F22590
 0002:80F225A8       loc_80F225A8
 0002:80F225C0       locret_80F225C0
 0002:80F22A0C       loc_80F22A0C
 0002:80F22A1C       locret_80F22A1C
 0002:80F22F70       sub_80F22F70
 0002:80F22F90       loc_80F22F90
 0002:80F22FA8       loc_80F22FA8
 0002:80F22FB0       locret_80F22FB0
 0002:80F23058       loc_80F23058
 0002:80F230B4       sub_80F230B4
 0002:80F230DC       loc_80F230DC
 0002:80F230FC       loc_80F230FC
 0002:80F2311C       loc_80F2311C
 0002:80F23134       sub_80F23134
 0002:80F2315C       loc_80F2315C
 0002:80F2317C       loc_80F2317C
 0002:80F2319C       loc_80F2319C
 0002:80F231BC       nullsub_65
 0002:80F23E34       loc_80F23E34
 0002:80F242E4       loc_80F242E4
 0002:80F242F0       loc_80F242F0
 0002:80F242FC       loc_80F242FC
 0002:80F243F4       loc_80F243F4
 0002:80F252B0       loc_80F252B0
 0002:80F257B8       nullsub_66
 0002:80F26878       loc_80F26878
 0002:80F26880       loc_80F26880
 0002:80F26E00       loc_80F26E00
 0002:80F272C0       loc_80F272C0
 0002:80F272F8       loc_80F272F8
 0002:80F27310       loc_80F27310
 0002:80F27330       loc_80F27330
 0002:80F27348       loc_80F27348
 0002:80F2737C       loc_80F2737C
 0002:80F27394       loc_80F27394
 0002:80F273B0       loc_80F273B0
 0002:80F273C8       loc_80F273C8
 0002:80F273F8       loc_80F273F8
 0002:80F27410       loc_80F27410
 0002:80F2745C       loc_80F2745C
 0002:80F27490       loc_80F27490
 0002:80F274C4       loc_80F274C4
 0002:80F274F8       loc_80F274F8
 0002:80F2752C       loc_80F2752C
 0002:80F27560       loc_80F27560
 0002:80F275B0       sub_80F275B0
 0002:80F275E8       loc_80F275E8
 0002:80F275EC       loc_80F275EC
 0002:80F27600       loc_80F27600
 0002:80F2766C       loc_80F2766C
 0002:80F27684       loc_80F27684
 0002:80F27694       loc_80F27694
 0002:80F276B8       loc_80F276B8
 0002:80F276CC       loc_80F276CC
 0002:80F27730       loc_80F27730
 0002:80F2774C       loc_80F2774C
 0002:80F27754       locret_80F27754
 0002:80F27A54       nullsub_67
 0002:80F298F4       loc_80F298F4
 0002:80F29968       loc_80F29968
 0002:80F29974       loc_80F29974
 0002:80F29980       loc_80F29980
 0002:80F29994       locret_80F29994
 0002:80F2AC30       loc_80F2AC30
 0002:80F2AC68       sub_80F2AC68
 0002:80F2ACC4       loc_80F2ACC4
 0002:80F2ACE4       loc_80F2ACE4
 0002:80F2ACE8       loc_80F2ACE8
 0002:80F2AD14       loc_80F2AD14
 0002:80F2AD30       loc_80F2AD30
 0002:80F2AD34       loc_80F2AD34
 0002:80F2AD70       loc_80F2AD70
 0002:80F2AD8C       loc_80F2AD8C
 0002:80F2AD90       loc_80F2AD90
 0002:80F2ADCC       loc_80F2ADCC
 0002:80F2ADE8       loc_80F2ADE8
 0002:80F2ADEC       loc_80F2ADEC
 0002:80F2AE28       loc_80F2AE28
 0002:80F2AE44       loc_80F2AE44
 0002:80F2AE48       loc_80F2AE48
 0002:80F2AE78       locret_80F2AE78
 0002:80F2B314       loc_80F2B314
 0002:80F2B320       loc_80F2B320
 0002:80F2B32C       loc_80F2B32C
 0002:80F2B3A4       loc_80F2B3A4
 0002:80F2B3B0       loc_80F2B3B0
 0002:80F2B3BC       loc_80F2B3BC
 0002:80F2B434       loc_80F2B434
 0002:80F2B440       loc_80F2B440
 0002:80F2B44C       loc_80F2B44C
 0002:80F2B64C       loc_80F2B64C
 0002:80F2B658       loc_80F2B658
 0002:80F2B664       loc_80F2B664
 0002:80F2B6D8       loc_80F2B6D8
 0002:80F2B6E4       loc_80F2B6E4
 0002:80F2B6F0       loc_80F2B6F0
 0002:80F2B764       loc_80F2B764
 0002:80F2B770       loc_80F2B770
 0002:80F2B77C       loc_80F2B77C
 0002:80F2B7F0       loc_80F2B7F0
 0002:80F2B7FC       loc_80F2B7FC
 0002:80F2B808       loc_80F2B808
 0002:80F2B8FC       loc_80F2B8FC
 0002:80F2B908       loc_80F2B908
 0002:80F2B914       loc_80F2B914
 0002:80F2B988       loc_80F2B988
 0002:80F2B994       loc_80F2B994
 0002:80F2B9A0       loc_80F2B9A0
 0002:80F2BA14       loc_80F2BA14
 0002:80F2BA20       loc_80F2BA20
 0002:80F2BA2C       loc_80F2BA2C
 0002:80F2BAA0       loc_80F2BAA0
 0002:80F2BAAC       loc_80F2BAAC
 0002:80F2BAB8       loc_80F2BAB8
 0002:80F2BC6C       loc_80F2BC6C
 0002:80F2BC78       loc_80F2BC78
 0002:80F2BC84       loc_80F2BC84
 0002:80F2BCFC       loc_80F2BCFC
 0002:80F2BD08       loc_80F2BD08
 0002:80F2BD14       loc_80F2BD14
 0002:80F2BD8C       loc_80F2BD8C
 0002:80F2BD98       loc_80F2BD98
 0002:80F2BDA4       loc_80F2BDA4
 0002:80F2C090       loc_80F2C090
 0002:80F2C09C       loc_80F2C09C
 0002:80F2C0A8       loc_80F2C0A8
 0002:80F2C11C       loc_80F2C11C
 0002:80F2C128       loc_80F2C128
 0002:80F2C134       loc_80F2C134
 0002:80F2C1A8       loc_80F2C1A8
 0002:80F2C1B4       loc_80F2C1B4
 0002:80F2C1C0       loc_80F2C1C0
 0002:80F2C234       loc_80F2C234
 0002:80F2C240       loc_80F2C240
 0002:80F2C24C       loc_80F2C24C
 0002:80F2C45C       loc_80F2C45C
 0002:80F2C46C       locret_80F2C46C
 0002:80F2D758       loc_80F2D758
 0002:80F2D764       loc_80F2D764
 0002:80F2D7C4       loc_80F2D7C4
 0002:80F2D7D0       loc_80F2D7D0
 0002:80F2DFE4       loc_80F2DFE4
 0002:80F3155C       sub_80F3155C
 0002:80F318AC       loc_80F318AC
 0002:80F32234       nullsub_68
 0002:80F323B8       loc_80F323B8
 0002:80F32628       sub_80F32628
 0002:80F32714       sub_80F32714
 0002:80F327D4       loc_80F327D4
 0002:80F327E0       loc_80F327E0
 0002:80F3283C       loc_80F3283C
 0002:80F32848       loc_80F32848
 0002:80F328FC       sub_80F328FC
 0002:80F32938       loc_80F32938
 0002:80F32950       loc_80F32950
 0002:80F32964       loc_80F32964
 0002:80F32980       loc_80F32980
 0002:80F32984       loc_80F32984
 0002:80F329A4       loc_80F329A4
 0002:80F32C38       sub_80F32C38
 0002:80F32FF0       loc_80F32FF0
 0002:80F331E4       sub_80F331E4
 0002:80F33210       loc_80F33210
 0002:80F3323C       loc_80F3323C
 0002:80F33254       sub_80F33254
 0002:80F33280       loc_80F33280
 0002:80F332AC       loc_80F332AC
 0002:80F332E8       locret_80F332E8
 0002:80F33314       locret_80F33314
 0002:80F33718       loc_80F33718
 0002:80F337AC       locret_80F337AC
 0002:80F33D24       loc_80F33D24
 0002:80F34034       loc_80F34034
 0002:80F34050       loc_80F34050
 0002:80F34074       locret_80F34074
 0002:80F345BC       locret_80F345BC
 0002:80F34850       loc_80F34850
 0002:80F36360       loc_80F36360
 0002:80F363B0       sub_80F363B0
 0002:80F363EC       loc_80F363EC
 0002:80F36420       loc_80F36420
 0002:80F36AB8       loc_80F36AB8
 0002:80F36EB8       loc_80F36EB8
 0002:80F36ED0       loc_80F36ED0
 0002:80F36F14       loc_80F36F14
 0002:80F36F18       loc_80F36F18
 0002:80F36F74       loc_80F36F74
 0002:80F36F88       loc_80F36F88
 0002:80F36FA8       loc_80F36FA8
 0002:80F37094       sub_80F37094
 0002:80F370C4       loc_80F370C4
 0002:80F37128       loc_80F37128
 0002:80F3712C       loc_80F3712C
 0002:80F37194       loc_80F37194
 0002:80F3764C       loc_80F3764C
 0002:80F37684       loc_80F37684
 0002:80F37824       loc_80F37824
 0002:80F37894       loc_80F37894
 0002:80F379BC       loc_80F379BC
 0002:80F379DC       loc_80F379DC
 0002:80F379F4       loc_80F379F4
 0002:80F37A14       loc_80F37A14
 0002:80F37A2C       loc_80F37A2C
 0002:80F38798       loc_80F38798
 0002:80F390AC       loc_80F390AC
 0002:80F39134       loc_80F39134
 0002:80F3959C       locret_80F3959C
 0002:80F396B8       sub_80F396B8
 0002:80F396E0       loc_80F396E0
 0002:80F39700       loc_80F39700
 0002:80F39720       loc_80F39720
 0002:80F3A620       locret_80F3A620
 0002:80F3A628       locret_80F3A628
 0002:80F3A630       locret_80F3A630
 0002:80F3A638       locret_80F3A638
 0002:80F3A640       locret_80F3A640
 0002:80F3A648       locret_80F3A648
 0002:80F3A650       locret_80F3A650
 0002:80F3A658       locret_80F3A658
 0002:80F3A660       locret_80F3A660
 0002:80F3A668       locret_80F3A668
 0002:80F3A670       locret_80F3A670
 0002:80F3A678       locret_80F3A678
 0002:80F3A8D4       loc_80F3A8D4
 0002:80F3AA48       loc_80F3AA48
 0002:80F3B508       loc_80F3B508
 0002:80F3B538       loc_80F3B538
 0002:80F3B53C       loc_80F3B53C
 0002:80F3B548       loc_80F3B548
 0002:80F3B558       loc_80F3B558
 0002:80F3B564       loc_80F3B564
 0002:80F3B570       loc_80F3B570
 0002:80F3B57C       loc_80F3B57C
 0002:80F3B684       loc_80F3B684
 0002:80F3B6C0       loc_80F3B6C0
 0002:80F3B778       loc_80F3B778
 0002:80F3B790       loc_80F3B790
 0002:80F3B7B4       loc_80F3B7B4
 0002:80F3B7CC       loc_80F3B7CC
 0002:80F3B860       loc_80F3B860
 0002:80F3B868       loc_80F3B868
 0002:80F3B878       loc_80F3B878
 0002:80F3B8F0       loc_80F3B8F0
 0002:80F3B8FC       loc_80F3B8FC
 0002:80F3B908       loc_80F3B908
 0002:80F3B988       loc_80F3B988
 0002:80F3B994       loc_80F3B994
 0002:80F3B9A0       loc_80F3B9A0
 0002:80F3BA20       loc_80F3BA20
 0002:80F3BA2C       loc_80F3BA2C
 0002:80F3BA38       loc_80F3BA38
 0002:80F3D180       loc_80F3D180
 0002:80F3D18C       loc_80F3D18C
 0002:80F3D1A0       loc_80F3D1A0
 0002:80F3D1A4       loc_80F3D1A4
 0002:80F3D1B4       loc_80F3D1B4
 0002:80F3D1B8       loc_80F3D1B8
 0002:80F3D1E4       loc_80F3D1E4
 0002:80F3D1FC       loc_80F3D1FC
 0002:80F3D464       loc_80F3D464
 0002:80F3D470       loc_80F3D470
 0002:80F3D484       loc_80F3D484
 0002:80F3D488       loc_80F3D488
 0002:80F3D498       loc_80F3D498
 0002:80F3D49C       loc_80F3D49C
 0002:80F3D4C4       loc_80F3D4C4
 0002:80F3D4DC       loc_80F3D4DC
 0002:80F3D744       loc_80F3D744
 0002:80F3D754       loc_80F3D754
 0002:80F3D764       loc_80F3D764
 0002:80F3D768       loc_80F3D768
 0002:80F3D778       loc_80F3D778
 0002:80F3D77C       loc_80F3D77C
 0002:80F3D7A8       loc_80F3D7A8
 0002:80F3D7C0       loc_80F3D7C0
 0002:80F3DA40       loc_80F3DA40
 0002:80F3DA50       loc_80F3DA50
 0002:80F3DA60       loc_80F3DA60
 0002:80F3DA64       loc_80F3DA64
 0002:80F3DA74       loc_80F3DA74
 0002:80F3DA78       loc_80F3DA78
 0002:80F3DAA4       loc_80F3DAA4
 0002:80F3DABC       loc_80F3DABC
 0002:80F3DD3C       loc_80F3DD3C
 0002:80F3DD4C       loc_80F3DD4C
 0002:80F3DD5C       loc_80F3DD5C
 0002:80F3DD60       loc_80F3DD60
 0002:80F3DD70       loc_80F3DD70
 0002:80F3DD74       loc_80F3DD74
 0002:80F3DDA0       loc_80F3DDA0
 0002:80F3DDB8       loc_80F3DDB8
 0002:80F3E344       loc_80F3E344
 0002:80F3FC28       loc_80F3FC28
 0002:80F3FC34       locret_80F3FC34
 0002:80F400E0       loc_80F400E0
 0002:80F400F4       locret_80F400F4
 0002:80F40120       loc_80F40120
 0002:80F40134       loc_80F40134
 0002:80F40138       loc_80F40138
 0002:80F40154       loc_80F40154
 0002:80F40168       loc_80F40168
 0002:80F4016C       loc_80F4016C
 0002:80F40188       loc_80F40188
 0002:80F4019C       locret_80F4019C
 0002:80F402B0       loc_80F402B0
 0002:80F40A08       loc_80F40A08
 0002:80F40A68       loc_80F40A68
 0002:80F40A78       loc_80F40A78
 0002:80F40A8C       loc_80F40A8C
 0002:80F40B28       loc_80F40B28
 0002:80F40F24       dword_80F40F24
 0002:80F40FC8       loc_80F40FC8
 0002:80F41038       locret_80F41038
 0002:80F411CC       sub_80F411CC
 0002:80F4152C       sub_80F4152C
 0002:80F4162C       loc_80F4162C
 0002:80F41640       loc_80F41640
 0002:80F41C1C       loc_80F41C1C
 0002:80F422BC       sub_80F422BC
 0002:80F42320       loc_80F42320
 0002:80F4244C       loc_80F4244C
 0002:80F424CC       loc_80F424CC
 0002:80F424D8       loc_80F424D8
 0002:80F4399C       loc_80F4399C
 0002:80F439D8       loc_80F439D8
 0002:80F44148       loc_80F44148
 0002:80F44730       nullsub_69
 0002:80F44D34       locret_80F44D34
 0002:80F44D4C       locret_80F44D4C
 0002:80F44D74       locret_80F44D74
 0002:80F451A8       loc_80F451A8
 0002:80F45488       loc_80F45488
 0002:80F4548C       loc_80F4548C
 0002:80F454AC       locret_80F454AC
 0002:80F454F0       loc_80F454F0
 0002:80F4553C       loc_80F4553C
 0002:80F455E4       loc_80F455E4
 0002:80F45600       loc_80F45600
 0002:80F4561C       loc_80F4561C
 0002:80F45630       loc_80F45630
 0002:80F45644       loc_80F45644
 0002:80F4564C       loc_80F4564C
 0002:80F45664       loc_80F45664
 0002:80F45678       loc_80F45678
 0002:80F45688       loc_80F45688
 0002:80F456A0       loc_80F456A0
 0002:80F456AC       loc_80F456AC
 0002:80F456DC       loc_80F456DC
 0002:80F456F4       loc_80F456F4
 0002:80F456F8       loc_80F456F8
 0002:80F4573C       locret_80F4573C
 0002:80F45D98       loc_80F45D98
 0002:80F4626C       sub_80F4626C
 0002:80F46298       loc_80F46298
 0002:80F462B0       locret_80F462B0
 0002:80F46934       loc_80F46934
 0002:80F46954       locret_80F46954
 0002:80F469DC       loc_80F469DC
 0002:80F46A00       loc_80F46A00
 0002:80F46A10       locret_80F46A10
 0002:80F47BC8       loc_80F47BC8
 0002:80F47BD0       loc_80F47BD0
 0002:80F485F0       loc_80F485F0
 0002:80F49838       sub_80F49838
 0002:80F4A93C       loc_80F4A93C
 0002:80F4A9A0       loc_80F4A9A0
 0002:80F4AA64       loc_80F4AA64
 0002:80F4AB0C       loc_80F4AB0C
 0002:80F4AB2C       locret_80F4AB2C
 0002:80F4AB38       loc_80F4AB38
 0002:80F4AB94       loc_80F4AB94
 0002:80F4ABA4       loc_80F4ABA4
 0002:80F4ABAC       loc_80F4ABAC
 0002:80F4ABC8       sub_80F4ABC8
 0002:80F4ABEC       sub_80F4ABEC
 0002:80F4B130       nullsub_70
 0002:80F4B138       nullsub_71
 0002:80F4B1C2       word_80F4B1C2
 0002:80F4BC70       loc_80F4BC70
 0002:80F4BC74       loc_80F4BC74
 0002:80F4BC94       loc_80F4BC94
 0002:80F4BCB0       loc_80F4BCB0
 0002:80F4BCCC       loc_80F4BCCC
 0002:80F4BD04       loc_80F4BD04
 0002:80F4BD34       loc_80F4BD34
 0002:80F4BD40       loc_80F4BD40
 0002:80F4BD78       loc_80F4BD78
 0002:80F4BD88       loc_80F4BD88
 0002:80F4BDB4       loc_80F4BDB4
 0002:80F4BDC0       loc_80F4BDC0
 0002:80F4BDEC       loc_80F4BDEC
 0002:80F4BDFC       loc_80F4BDFC
 0002:80F4BE48       loc_80F4BE48
 0002:80F4BE60       loc_80F4BE60
 0002:80F4BFC0       sub_80F4BFC0
 0002:80F4BFF4       loc_80F4BFF4
 0002:80F4C01C       loc_80F4C01C
 0002:80F4C030       loc_80F4C030
 0002:80F4C034       loc_80F4C034
 0002:80F4C048       locret_80F4C048
 0002:80F4C06C       loc_80F4C06C
 0002:80F4C090       loc_80F4C090
 0002:80F4C0A4       loc_80F4C0A4
 0002:80F4C0A8       loc_80F4C0A8
 0002:80F4C0D0       loc_80F4C0D0
 0002:80F4C0EC       locret_80F4C0EC
 0002:80F4C10C       loc_80F4C10C
 0002:80F4C11C       loc_80F4C11C
 0002:80F4C144       loc_80F4C144
 0002:80F4C160       locret_80F4C160
 0002:80F4C170       sub_80F4C170
 0002:80F4C18C       loc_80F4C18C
 0002:80F4C1B0       loc_80F4C1B0
 0002:80F4C1C8       loc_80F4C1C8
 0002:80F4C1D0       loc_80F4C1D0
 0002:80F4C1E0       loc_80F4C1E0
 0002:80F4C1E4       loc_80F4C1E4
 0002:80F4C200       loc_80F4C200
 0002:80F4C218       loc_80F4C218
 0002:80F4C220       locret_80F4C220
 0002:80F4C238       loc_80F4C238
 0002:80F4C250       locret_80F4C250
 0002:80F4C2A4       loc_80F4C2A4
 0002:80F4C2C0       loc_80F4C2C0
 0002:80F4C2C4       loc_80F4C2C4
 0002:80F4C2DC       loc_80F4C2DC
 0002:80F4C2E0       loc_80F4C2E0
 0002:80F4C2F8       locret_80F4C2F8
 0002:80F4C300       loc_80F4C300
 0002:80F4C31C       loc_80F4C31C
 0002:80F4C328       locret_80F4C328
 0002:80F4C330       loc_80F4C330
 0002:80F4C334       loc_80F4C334
 0002:80F4C33C       loc_80F4C33C
 0002:80F4C340       loc_80F4C340
 0002:80F4C360       loc_80F4C360
 0002:80F4C370       loc_80F4C370
 0002:80F4C384       loc_80F4C384
 0002:80F4C3BC       loc_80F4C3BC
 0002:80F4C3CC       locret_80F4C3CC
 0002:80F4C494       loc_80F4C494
 0002:80F4C4A8       locret_80F4C4A8
 0002:80F4C4E0       loc_80F4C4E0
 0002:80F4C694       loc_80F4C694
 0002:80F4C888       loc_80F4C888
 0002:80F4CC90       sub_80F4CC90
 0002:80F4CCC8       loc_80F4CCC8
 0002:80F4CCE0       loc_80F4CCE0
 0002:80F4CD28       loc_80F4CD28
 0002:80F4CD38       loc_80F4CD38
 0002:80F4D0E0       locret_80F4D0E0
 0002:80F4D87C       sub_80F4D87C
 0002:80F4D8D8       loc_80F4D8D8
 0002:80F4DA30       loc_80F4DA30
 0002:80F4DAA8       loc_80F4DAA8
 0002:80F4DAB0       loc_80F4DAB0
 0002:80F4DABC       loc_80F4DABC
 0002:80F4E16C       sub_80F4E16C
 0002:80F4E250       loc_80F4E250
 0002:80F4E264       loc_80F4E264
 0002:80F4E2A4       loc_80F4E2A4
 0002:80F4E2C4       loc_80F4E2C4
 0002:80F4E42C       sub_80F4E42C
 0002:80F4E614       nullsub_72
 0002:80F4E694       locret_80F4E694
 0002:80F4E69C       loc_80F4E69C
 0002:80F4E700       loc_80F4E700
 0002:80F4E71C       loc_80F4E71C
 0002:80F4E798       loc_80F4E798
 0002:80F4E7B4       loc_80F4E7B4
 0002:80F4E7D0       loc_80F4E7D0
 0002:80F4ECDC       loc_80F4ECDC
 0002:80F4ECF4       loc_80F4ECF4
 0002:80F4F214       loc_80F4F214
 0002:80F4F22C       loc_80F4F22C
 0002:80F4F3DC       sub_80F4F3DC
 0002:80F4F3F0       loc_80F4F3F0
 0002:80F4F404       loc_80F4F404
 0002:80F4F414       locret_80F4F414
 0002:80F4F54C       loc_80F4F54C
 0002:80F4F560       loc_80F4F560
 0002:80F4F588       loc_80F4F588
 0002:80F4F59C       loc_80F4F59C
 0002:80F4F5A8       loc_80F4F5A8
 0002:80F4F5B4       loc_80F4F5B4
 0002:80F4F5C0       locret_80F4F5C0
 0002:80F4F6C0       loc_80F4F6C0
 0002:80F4F6DC       loc_80F4F6DC
 0002:80F4FC60       loc_80F4FC60
 0002:80F4FF4C       sub_80F4FF4C
 0002:80F4FF64       loc_80F4FF64
 0002:80F4FF78       loc_80F4FF78
 0002:80F5011C       sub_80F5011C
 0002:80F50140       loc_80F50140
 0002:80F501B0       loc_80F501B0
 0002:80F501DC       loc_80F501DC
 0002:80F501EC       sub_80F501EC
 0002:80F501F8       loc_80F501F8
 0002:80F50284       loc_80F50284
 0002:80F502CC       loc_80F502CC
 0002:80F505E8       sub_80F505E8
 0002:80F50608       loc_80F50608
 0002:80F5065C       loc_80F5065C
 0002:80F50688       locret_80F50688
 0002:80F50690       sub_80F50690
 0002:80F506A4       loc_80F506A4
 0002:80F50720       loc_80F50720
 0002:80F50768       loc_80F50768
 0002:80F50914       loc_80F50914
 0002:80F50924       locret_80F50924
 0002:80F5092C       loc_80F5092C
 0002:80F50938       loc_80F50938
 0002:80F50BC4       loc_80F50BC4
 0002:80F50BD4       loc_80F50BD4
 0002:80F50C40       loc_80F50C40
 0002:80F50C7C       loc_80F50C7C
 0002:80F50CE4       loc_80F50CE4
 0002:80F50D24       loc_80F50D24
 0002:80F50D40       loc_80F50D40
 0002:80F50DAC       loc_80F50DAC
 0002:80F50DD4       loc_80F50DD4
 0002:80F50DE4       sub_80F50DE4
 0002:80F50E14       loc_80F50E14
 0002:80F50E30       loc_80F50E30
 0002:80F50E48       loc_80F50E48
 0002:80F50E60       loc_80F50E60
 0002:80F50E70       loc_80F50E70
 0002:80F50EB4       nullsub_73
 0002:80F50F8C       loc_80F50F8C
 0002:80F50F94       loc_80F50F94
 0002:80F50F98       loc_80F50F98
 0002:80F51048       loc_80F51048
 0002:80F510D4       loc_80F510D4
 0002:80F510D8       loc_80F510D8
 0002:80F511EC       loc_80F511EC
 0002:80F5141C       loc_80F5141C
 0002:80F515BC       loc_80F515BC
 0002:80F516B0       loc_80F516B0
 0002:80F516DC       loc_80F516DC
 0002:80F516E8       loc_80F516E8
 0002:80F51A14       loc_80F51A14
 0002:80F51BCC       sub_80F51BCC
 0002:80F51C40       loc_80F51C40
 0002:80F51C88       loc_80F51C88
 0002:80F51C9C       sub_80F51C9C
 0002:80F51CC0       loc_80F51CC0
 0002:80F51D30       loc_80F51D30
 0002:80F51D5C       loc_80F51D5C
 0002:80F51E18       loc_80F51E18
 0002:80F526FC       sub_80F526FC
 0002:80F52758       loc_80F52758
 0002:80F52D28       loc_80F52D28
 0002:80F52D44       loc_80F52D44
 0002:80F52D48       loc_80F52D48
 0002:80F52D5C       loc_80F52D5C
 0002:80F53668       loc_80F53668
 0002:80F53680       locret_80F53680
 0002:80F5369C       loc_80F5369C
 0002:80F536A8       locret_80F536A8
 0002:80F536C4       loc_80F536C4
 0002:80F536D8       loc_80F536D8
 0002:80F536E8       locret_80F536E8
 0002:80F53764       loc_80F53764
 0002:80F53774       locret_80F53774
 0002:80F5377C       loc_80F5377C
 0002:80F53788       loc_80F53788
 0002:80F537FC       loc_80F537FC
 0002:80F5381C       loc_80F5381C
 0002:80F5382C       locret_80F5382C
 0002:80F53834       loc_80F53834
 0002:80F53840       loc_80F53840
 0002:80F53858       sub_80F53858
 0002:80F5387C       loc_80F5387C
 0002:80F53880       locret_80F53880
 0002:80F53888       sub_80F53888
 0002:80F538AC       loc_80F538AC
 0002:80F538B0       locret_80F538B0
 0002:80F53AFC       locret_80F53AFC
 0002:80F53F0C       loc_80F53F0C
 0002:80F53F58       loc_80F53F58
 0002:80F53F6C       loc_80F53F6C
 0002:80F53F80       loc_80F53F80
 0002:80F53F88       loc_80F53F88
 0002:80F53F8C       loc_80F53F8C
 0002:80F53FE0       loc_80F53FE0
 0002:80F54018       loc_80F54018
 0002:80F5453C       loc_80F5453C
 0002:80F545B8       loc_80F545B8
 0002:80F545C0       loc_80F545C0
 0002:80F545D0       loc_80F545D0
 0002:80F545E8       loc_80F545E8
 0002:80F5460C       loc_80F5460C
 0002:80F5464C       loc_80F5464C
 0002:80F54664       locret_80F54664
 0002:80F5466C       sub_80F5466C
 0002:80F5467C       loc_80F5467C
 0002:80F54698       loc_80F54698
 0002:80F5469C       loc_80F5469C
 0002:80F546B8       loc_80F546B8
 0002:80F546BC       loc_80F546BC
 0002:80F5471C       sub_80F5471C
 0002:80F54728       loc_80F54728
 0002:80F54730       loc_80F54730
 0002:80F5474C       loc_80F5474C
 0002:80F54750       loc_80F54750
 0002:80F54774       loc_80F54774
 0002:80F54798       loc_80F54798
 0002:80F5479C       loc_80F5479C
 0002:80F547A8       loc_80F547A8
 0002:80F54830       loc_80F54830
 0002:80F54848       loc_80F54848
 0002:80F54854       loc_80F54854
 0002:80F54868       locret_80F54868
 0002:80F54870       loc_80F54870
 0002:80F548A4       loc_80F548A4
 0002:80F548B8       loc_80F548B8
 0002:80F548D4       loc_80F548D4
 0002:80F54930       loc_80F54930
 0002:80F54934       loc_80F54934
 0002:80F5496C       loc_80F5496C
 0002:80F54970       loc_80F54970
 0002:80F54994       loc_80F54994
 0002:80F549B0       loc_80F549B0
 0002:80F549C4       loc_80F549C4
 0002:80F549E0       loc_80F549E0
 0002:80F54A14       loc_80F54A14
 0002:80F54A28       loc_80F54A28
 0002:80F54A44       loc_80F54A44
 0002:80F54AA0       loc_80F54AA0
 0002:80F54AA4       loc_80F54AA4
 0002:80F54ADC       loc_80F54ADC
 0002:80F54AE0       loc_80F54AE0
 0002:80F54C50       loc_80F54C50
 0002:80F54C8C       loc_80F54C8C
 0002:80F54D50       loc_80F54D50
 0002:80F54D70       loc_80F54D70
 0002:80F54DD0       loc_80F54DD0
 0002:80F54E50       loc_80F54E50
 0002:80F54E64       loc_80F54E64
 0002:80F54E78       loc_80F54E78
 0002:80F54E8C       loc_80F54E8C
 0002:80F54EA0       loc_80F54EA0
 0002:80F54F0C       loc_80F54F0C
 0002:80F54F14       loc_80F54F14
 0002:80F54FB4       nullsub_74
 0002:80F54FD0       nullsub_75
 0002:80F55494       loc_80F55494
 0002:80F554FC       loc_80F554FC
 0002:80F55540       loc_80F55540
 0002:80F55550       loc_80F55550
 0002:80F555D0       loc_80F555D0
 0002:80F555F0       loc_80F555F0
 0002:80F55608       loc_80F55608
 0002:80F55AE0       loc_80F55AE0
 0002:80F55B90       loc_80F55B90
 0002:80F55BAC       loc_80F55BAC
 0002:80F55BB4       loc_80F55BB4
 0002:80F55BCC       loc_80F55BCC
 0002:80F55BD0       loc_80F55BD0
 0002:80F55BE0       sub_80F55BE0
 0002:80F55C38       loc_80F55C38
 0002:80F55C60       loc_80F55C60
 0002:80F55CA0       sub_80F55CA0
 0002:80F55CB8       loc_80F55CB8
 0002:80F55CD8       loc_80F55CD8
 0002:80F55D34       locret_80F55D34
 0002:80F55D3C       sub_80F55D3C
 0002:80F55D50       loc_80F55D50
 0002:80F55D8C       loc_80F55D8C
 0002:80F55D98       sub_80F55D98
 0002:80F55DB0       loc_80F55DB0
 0002:80F561C8       loc_80F561C8
 0002:80F561F0       loc_80F561F0
 0002:80F56208       loc_80F56208
 0002:80F563A0       loc_80F563A0
 0002:80F565FC       loc_80F565FC
 0002:80F566B8       loc_80F566B8
 0002:80F566E0       loc_80F566E0
 0002:80F566F8       loc_80F566F8
 0002:80F56A18       loc_80F56A18
 0002:80F57138       loc_80F57138
 0002:80F5714C       loc_80F5714C
 0002:80F57150       loc_80F57150
 0002:80F57304       loc_80F57304
 0002:80F574EC       loc_80F574EC
 0002:80F574FC       sub_80F574FC
 0002:80F57564       loc_80F57564
 0002:80F5759C       sub_80F5759C
 0002:80F575B4       loc_80F575B4
 0002:80F575C8       loc_80F575C8
 0002:80F57618       loc_80F57618
 0002:80F57638       loc_80F57638
 0002:80F57658       loc_80F57658
 0002:80F5767C       loc_80F5767C
 0002:80F5769C       loc_80F5769C
 0002:80F576BC       loc_80F576BC
 0002:80F576DC       loc_80F576DC
 0002:80F576FC       loc_80F576FC
 0002:80F5770C       loc_80F5770C
 0002:80F579FC       loc_80F579FC
 0002:80F57AC8       loc_80F57AC8
 0002:80F57AF4       loc_80F57AF4
 0002:80F57B00       loc_80F57B00
 0002:80F57B6C       sub_80F57B6C
 0002:80F57B84       loc_80F57B84
 0002:80F57B98       loc_80F57B98
 0002:80F57BE8       loc_80F57BE8
 0002:80F57C08       loc_80F57C08
 0002:80F57C28       loc_80F57C28
 0002:80F57C4C       loc_80F57C4C
 0002:80F57C6C       loc_80F57C6C
 0002:80F57C8C       loc_80F57C8C
 0002:80F57CAC       loc_80F57CAC
 0002:80F57CCC       loc_80F57CCC
 0002:80F57CDC       loc_80F57CDC
 0002:80F58214       loc_80F58214
 0002:80F58248       loc_80F58248
 0002:80F58260       loc_80F58260
 0002:80F58294       loc_80F58294
 0002:80F582AC       loc_80F582AC
 0002:80F582E8       loc_80F582E8
 0002:80F58334       loc_80F58334
 0002:80F58338       loc_80F58338
 0002:80F58344       nullsub_76
 0002:80F58934       loc_80F58934
 0002:80F58968       loc_80F58968
 0002:80F589B4       loc_80F589B4
 0002:80F589CC       loc_80F589CC
 0002:80F58A04       loc_80F58A04
 0002:80F58D08       loc_80F58D08
 0002:80F58D28       sub_80F58D28
 0002:80F58D38       sub_80F58D38
 0002:80F58D4C       loc_80F58D4C
 0002:80F58D6C       sub_80F58D6C
 0002:80F58F84       loc_80F58F84
 0002:80F5903C       loc_80F5903C
 0002:80F59068       loc_80F59068
 0002:80F59074       loc_80F59074
 0002:80F5972C       sub_80F5972C
 0002:80F59738       sub_80F59738
 0002:80F5975C       loc_80F5975C
 0002:80F59768       locret_80F59768
 0002:80F73C51       byte_80F73C51
 0002:80FA15DE       word_80FA15DE
 0002:80FF32E3       byte_80FF32E3
 0002:80FF4213       byte_80FF4213
 0002:80FF5A83       byte_80FF5A83
 0002:81004040       dword_81004040
 0002:81004764       dword_81004764
 0002:81008101       byte_81008101
 0002:81011223       byte_81011223
 0002:81012211       byte_81012211
 0002:81015FCF       byte_81015FCF
 0002:810410AA       word_810410AA
 0002:81043201       byte_81043201
 0002:81044212       word_81044212
 0002:8104EFCF       byte_8104EFCF
 0002:8105DFF2       word_8105DFF2
 0002:810CB02E       word_810CB02E
 0002:810D0F22       word_810D0F22
 0002:810D4100       dword_810D4100
 0002:810DCDFF       byte_810DCDFF
 0002:810DECCE       word_810DECCE

Program entry point at 0002:00000000
